head	1.7;
access;
symbols
	binutils-2_24-branch:1.7.0.26
	binutils-2_24-branchpoint:1.7
	binutils-2_21_1:1.7
	binutils-2_23_2:1.7
	binutils-2_23_1:1.7
	binutils-2_23:1.7
	binutils-2_23-branch:1.7.0.24
	binutils-2_23-branchpoint:1.7
	binutils-2_22_branch:1.7.0.22
	binutils-2_22:1.7
	binutils-2_22-branch:1.7.0.20
	binutils-2_22-branchpoint:1.7
	binutils-2_21:1.7
	binutils-2_21-branch:1.7.0.18
	binutils-2_21-branchpoint:1.7
	binutils-2_20_1:1.7
	binutils-2_20:1.7
	binutils-arc-20081103-branch:1.7.0.16
	binutils-arc-20081103-branchpoint:1.7
	binutils-2_20-branch:1.7.0.14
	binutils-2_20-branchpoint:1.7
	dje-cgen-play1-branch:1.7.0.12
	dje-cgen-play1-branchpoint:1.7
	arc-20081103-branch:1.7.0.10
	arc-20081103-branchpoint:1.7
	binutils-2_19_1:1.7
	binutils-2_19:1.7
	binutils-2_19-branch:1.7.0.8
	binutils-2_19-branchpoint:1.7
	binutils-2_18:1.7
	binutils-2_18-branch:1.7.0.6
	binutils-2_18-branchpoint:1.7
	binutils-csl-coldfire-4_1-32:1.7
	binutils-csl-sourcerygxx-4_1-32:1.7
	binutils-csl-innovasic-fido-3_4_4-33:1.7
	binutils-csl-sourcerygxx-3_4_4-32:1.6
	binutils-csl-coldfire-4_1-30:1.7
	binutils-csl-sourcerygxx-4_1-30:1.7
	binutils-csl-coldfire-4_1-28:1.7
	binutils-csl-sourcerygxx-4_1-29:1.7
	binutils-csl-sourcerygxx-4_1-28:1.7
	binutils-csl-arm-2006q3-27:1.7
	binutils-csl-sourcerygxx-4_1-27:1.7
	binutils-csl-arm-2006q3-26:1.7
	binutils-csl-sourcerygxx-4_1-26:1.7
	binutils-csl-sourcerygxx-4_1-25:1.7
	binutils-csl-sourcerygxx-4_1-24:1.7
	binutils-csl-sourcerygxx-4_1-23:1.7
	binutils-csl-sourcerygxx-4_1-21:1.7
	binutils-csl-arm-2006q3-21:1.7
	binutils-csl-sourcerygxx-4_1-22:1.7
	binutils-csl-palmsource-arm-prelinker-1_0-1:1.7
	binutils-csl-sourcerygxx-4_1-20:1.7
	binutils-csl-arm-2006q3-19:1.7
	binutils-csl-sourcerygxx-4_1-19:1.7
	binutils-csl-sourcerygxx-4_1-18:1.7
	binutils-csl-renesas-4_1-9:1.7
	binutils-csl-sourcerygxx-3_4_4-25:1.6
	binutils-csl-renesas-4_1-8:1.7
	binutils-csl-renesas-4_1-7:1.7
	binutils-csl-renesas-4_1-6:1.7
	binutils-csl-sourcerygxx-4_1-17:1.7
	binutils-csl-sourcerygxx-4_1-14:1.7
	binutils-csl-sourcerygxx-4_1-15:1.7
	binutils-csl-sourcerygxx-4_1-13:1.7
	binutils-2_17:1.7
	binutils-csl-sourcerygxx-4_1-12:1.7
	binutils-csl-sourcerygxx-3_4_4-21:1.7
	binutils-csl-wrs-linux-3_4_4-24:1.6
	binutils-csl-wrs-linux-3_4_4-23:1.6
	binutils-csl-sourcerygxx-4_1-9:1.7
	binutils-csl-sourcerygxx-4_1-8:1.7
	binutils-csl-sourcerygxx-4_1-7:1.7
	binutils-csl-arm-2006q1-6:1.7
	binutils-csl-sourcerygxx-4_1-6:1.7
	binutils-csl-wrs-linux-3_4_4-22:1.6
	binutils-csl-coldfire-4_1-11:1.7
	binutils-csl-sourcerygxx-3_4_4-19:1.7
	binutils-csl-coldfire-4_1-10:1.7
	binutils-csl-sourcerygxx-4_1-5:1.7
	binutils-csl-sourcerygxx-4_1-4:1.7
	binutils-csl-wrs-linux-3_4_4-21:1.6
	binutils-csl-morpho-4_1-4:1.7
	binutils-csl-sourcerygxx-3_4_4-17:1.7
	binutils-csl-wrs-linux-3_4_4-20:1.6
	binutils-2_17-branch:1.7.0.4
	binutils-2_17-branchpoint:1.7
	binutils-csl-2_17-branch:1.7.0.2
	binutils-csl-2_17-branchpoint:1.7
	binutils-csl-gxxpro-3_4-branch:1.6.0.6
	binutils-csl-gxxpro-3_4-branchpoint:1.6
	binutils-2_16_1:1.6
	binutils-csl-arm-2005q1b:1.6
	binutils-2_16:1.6
	binutils-csl-arm-2005q1a:1.6
	binutils-csl-arm-2005q1-branch:1.6.0.4
	binutils-csl-arm-2005q1-branchpoint:1.6
	binutils-2_16-branch:1.6.0.2
	binutils-2_16-branchpoint:1.6
	csl-arm-2004-q3d:1.4
	csl-arm-2004-q3:1.4
	binutils-2_15:1.1.6.1
	binutils-2_15-branchpoint:1.1
	csl-arm-2004-q1a:1.3
	csl-arm-2004-q1:1.3
	binutils-2_15-branch:1.1.0.6
	cagney_bfdfile-20040213-branch:1.1.0.4
	cagney_bfdfile-20040213-branchpoint:1.1
	cagney_bigcore-20040122-branch:1.1.0.2
	cagney_bigcore-20040122-branchpoint:1.1
	binutils_latest_snapshot:1.7;
locks; strict;
comment	@# @;


1.7
date	2005.08.15.15.39.45;	author amodra;	state Exp;
branches;
next	1.6;

1.6
date	2005.02.17.17.11.01;	author aoliva;	state Exp;
branches;
next	1.5;

1.5
date	2005.01.25.20.22.37;	author aoliva;	state Exp;
branches;
next	1.4;

1.4
date	2004.06.21.14.45.42;	author aoliva;	state Exp;
branches;
next	1.3;

1.3
date	2004.03.27.21.11.17;	author aoliva;	state Exp;
branches;
next	1.2;

1.2
date	2004.02.24.16.39.09;	author aoliva;	state Exp;
branches;
next	1.1;

1.1
date	2004.01.06.19.19.31;	author aoliva;	state Exp;
branches
	1.1.6.1;
next	;

1.1.6.1
date	2004.04.09.18.28.16;	author drow;	state Exp;
branches;
next	;


desc
@@


1.7
log
@Adjust for dynamic sym changes.
@
text
@#name: FRV uClinux PIC relocs to weak undefined symbols, pie linking
#source: fdpic6.s
#objdump: -DR -j .text -j .data -j .got -j .plt
#ld: -pie --defsym WD1=D6

.*:     file format elf.*frv.*

Disassembly of section \.plt:

[0-9a-f ]+<\.plt>:
[0-9a-f ]+:	00 00 00 08 	add\.p gr0,gr8,gr0
[0-9a-f ]+:	c0 1a 00 06 	bra [0-9a-f]+ <F6-0x10>
[0-9a-f ]+:	00 00 00 00 	add\.p gr0,gr0,gr0
[0-9a-f ]+:	c0 1a 00 04 	bra [0-9a-f]+ <F6-0x10>
[0-9a-f ]+:	00 00 00 10 	add\.p gr0,gr16,gr0
[0-9a-f ]+:	c0 1a 00 02 	bra [0-9a-f]+ <F6-0x10>
[0-9a-f ]+:	00 00 00 18 	add\.p gr0,gr24,gr0
[0-9a-f ]+:	88 08 f1 40 	ldd @@\(gr15,gr0\),gr4
[0-9a-f ]+:	80 30 40 00 	jmpl @@\(gr4,gr0\)
[0-9a-f ]+:	9c cc ff f0 	lddi @@\(gr15,-16\),gr14
[0-9a-f ]+:	80 30 e0 00 	jmpl @@\(gr14,gr0\)
Disassembly of section \.text:

[0-9a-f ]+<F6>:
[0-9a-f ]+:	fe 3f ff fe 	call [0-9a-f]+ <F6-0x8>
[0-9a-f ]+:	80 40 f0 0c 	addi gr15,12,gr0
[0-9a-f ]+:	80 fc 00 24 	setlos 0x24,gr0
[0-9a-f ]+:	80 f4 00 20 	setlo 0x20,gr0
[0-9a-f ]+:	80 f8 00 00 	sethi hi\(0x0\),gr0
[0-9a-f ]+:	80 40 f0 10 	addi gr15,16,gr0
[0-9a-f ]+:	80 fc 00 18 	setlos 0x18,gr0
[0-9a-f ]+:	80 f4 00 1c 	setlo 0x1c,gr0
[0-9a-f ]+:	80 f8 00 00 	sethi hi\(0x0\),gr0
[0-9a-f ]+:	80 40 ff f8 	addi gr15,-8,gr0
[0-9a-f ]+:	80 fc ff e8 	setlos 0xf*ffffffe8,gr0
[0-9a-f ]+:	80 f4 ff e0 	setlo 0xffe0,gr0
[0-9a-f ]+:	80 f8 ff ff 	sethi 0xffff,gr0
[0-9a-f ]+:	80 f4 ff d0 	setlo 0xffd0,gr0
[0-9a-f ]+:	80 f8 ff ff 	sethi 0xffff,gr0
[0-9a-f ]+:	80 f4 00 14 	setlo 0x14,gr0
[0-9a-f ]+:	80 f8 00 00 	sethi hi\(0x0\),gr0
Disassembly of section \.dat[0-9a-f ]+:

[0-9a-f ]+<D6>:
	\.\.\.
[0-9a-f	 ]+: R_FRV_32	WD0
[0-9a-f	 ]+: R_FRV_FUNCDESC	WFb
[0-9a-f	 ]+: R_FRV_32	WFb
Disassembly of section \.got:

[0-9a-f ]+<_GLOBAL_OFFSET_TABLE_-0x20>:
[0-9a-f ]+:	00 00 04 b8 	.*
[0-9a-f	 ]+: R_FRV_FUNCDESC_VALUE	WF9
[0-9a-f ]+:	00 00 00 02 	.*
[0-9a-f ]+:	00 00 04 b0 	.*
[0-9a-f	 ]+: R_FRV_FUNCDESC_VALUE	WF8
[0-9a-f ]+:	00 00 00 02 	.*
[0-9a-f ]+:	00 00 04 a8 	.*
[0-9a-f	 ]+: R_FRV_FUNCDESC_VALUE	WF0
[0-9a-f ]+:	00 00 00 02 	.*
[0-9a-f ]+:	00 00 04 a0 	.*
[0-9a-f	 ]+: R_FRV_FUNCDESC_VALUE	WF7
[0-9a-f ]+:	00 00 00 02 	.*

[0-9a-f ]+<_GLOBAL_OFFSET_TABLE_>:
	\.\.\.
[0-9a-f	 ]+: R_FRV_32	WF1
[0-9a-f	 ]+: R_FRV_FUNCDESC	WF4
[0-9a-f	 ]+: R_FRV_32	WD2
[0-9a-f	 ]+: R_FRV_FUNCDESC	WF5
[0-9a-f	 ]+: R_FRV_FUNCDESC	WF6
[0-9a-f	 ]+: R_FRV_32	WF3
[0-9a-f	 ]+: R_FRV_32	WF2
@


1.6
log
@bfd/ChangeLog:
* elf32-frv.c (elf32_frv_relocate_section): Remove warning from
uninitialized check_segment[1] in TLSMOFF case.
Reported by Alan Modra.
(elf32_frv_relocate_section): Improve errors and warnings.
ld/testsuite/ChangeLog:
* ld-frv/fdpic-static-6.d: Update.
* ld-frv/fdpic*.d: Remove explicit -mfdpic from #as.  Update
spelling of errors and warnings.
@
text
@d10 12
a21 12
000004c8 <\.plt>:
 4c8:	00 00 00 08 	add\.p gr0,gr8,gr0
 4cc:	c0 1a 00 06 	bra 4e4 <F6-0x10>
 4d0:	00 00 00 00 	add\.p gr0,gr0,gr0
 4d4:	c0 1a 00 04 	bra 4e4 <F6-0x10>
 4d8:	00 00 00 10 	add\.p gr0,gr16,gr0
 4dc:	c0 1a 00 02 	bra 4e4 <F6-0x10>
 4e0:	00 00 00 18 	add\.p gr0,gr24,gr0
 4e4:	88 08 f1 40 	ldd @@\(gr15,gr0\),gr4
 4e8:	80 30 40 00 	jmpl @@\(gr4,gr0\)
 4ec:	9c cc ff f0 	lddi @@\(gr15,-16\),gr14
 4f0:	80 30 e0 00 	jmpl @@\(gr14,gr0\)
d24 19
a42 19
000004f4 <F6>:
 4f4:	fe 3f ff fe 	call 4ec <F6-0x8>
 4f8:	80 40 f0 0c 	addi gr15,12,gr0
 4fc:	80 fc 00 24 	setlos 0x24,gr0
 500:	80 f4 00 20 	setlo 0x20,gr0
 504:	80 f8 00 00 	sethi hi\(0x0\),gr0
 508:	80 40 f0 10 	addi gr15,16,gr0
 50c:	80 fc 00 18 	setlos 0x18,gr0
 510:	80 f4 00 1c 	setlo 0x1c,gr0
 514:	80 f8 00 00 	sethi hi\(0x0\),gr0
 518:	80 40 ff f8 	addi gr15,-8,gr0
 51c:	80 fc ff e8 	setlos 0xf*ffffffe8,gr0
 520:	80 f4 ff e0 	setlo 0xffe0,gr0
 524:	80 f8 ff ff 	sethi 0xffff,gr0
 528:	80 f4 ff d4 	setlo 0xffd4,gr0
 52c:	80 f8 ff ff 	sethi 0xffff,gr0
 530:	80 f4 00 14 	setlo 0x14,gr0
 534:	80 f8 00 00 	sethi hi\(0x0\),gr0
Disassembly of section \.data:
d44 1
a44 1
000045cc <D6>:
d46 3
a48 3
			45cc: R_FRV_32	WD0
			45d0: R_FRV_FUNCDESC	WFb
			45d4: R_FRV_32	WFb
d51 13
a63 13
000045d8 <_GLOBAL_OFFSET_TABLE_-0x20>:
    45d8:	00 00 04 e4 	addxcc\.p gr0,gr36,gr0,icc1
			45d8: R_FRV_FUNCDESC_VALUE	WF9
    45dc:	00 00 00 02 	add\.p gr0,fp,gr0
    45e0:	00 00 04 dc 	addxcc\.p gr0,gr28,gr0,icc1
			45e0: R_FRV_FUNCDESC_VALUE	WF8
    45e4:	00 00 00 02 	add\.p gr0,fp,gr0
    45e8:	00 00 04 d4 	addxcc\.p gr0,gr20,gr0,icc1
			45e8: R_FRV_FUNCDESC_VALUE	WF0
    45ec:	00 00 00 02 	add\.p gr0,fp,gr0
    45f0:	00 00 04 cc 	addxcc\.p gr0,gr12,gr0,icc1
			45f0: R_FRV_FUNCDESC_VALUE	WF7
    45f4:	00 00 00 02 	add\.p gr0,fp,gr0
d65 1
a65 1
000045f8 <_GLOBAL_OFFSET_TABLE_>:
d67 7
a73 7
			4604: R_FRV_32	WF1
			4608: R_FRV_FUNCDESC	WF4
			460c: R_FRV_32	WD2
			4610: R_FRV_FUNCDESC	WF5
			4614: R_FRV_FUNCDESC	WF6
			4618: R_FRV_32	WF3
			461c: R_FRV_32	WF2
@


1.5
log
@bfd/ChangeLog:
2004-12-10  Alexandre Oliva  <aoliva@@redhat.com>
* elf32-frv.c (elf32_frv_relocate_section): Force local binding
for TLSMOFF.
* reloc.c: Add R_FRV_TLSMOFF.
* elf32-frv.c (elf32_frv_howto_table): Likewise.
(frv_reloc_map, frv_reloc_type_lookup): Map it.
(elf32_frv_relocate_section): Handle it.
(elf32_frv_check_relocs): Likewise.
* libbfd.h, bfd-in2.h: Rebuilt.
2004-11-26  Alexandre Oliva  <aoliva@@redhat.com>
* elf32-frv.c (_frvfdpic_emit_got_relocs_plt_entries): Don't crash
when given an undefweak TLS symbol.  Fix constant TLS PLT entries
such that they return the constant in gr9.
(_frvfdpic_relax_tls_entries): Don't crash for undefweak TLS
symbols.
(_frvfdpic_size_got_plt): Set _cooked_size of dynamic sections.
too, such that they shrink on relaxation.
(elf32_frvfdpic_finish_dynamic_sections): Check __ROFIXUP_END__ as
marking the position right past the _GLOBAL_OFFSET_TABLE_ value.
(_frvfdpic_assign_plt_entries): Shrink constant TLS PLT entries
if we can guarantee the use of 16-bit constants.
2004-11-10  Alexandre Oliva  <aoliva@@redhat.com>
Introduce TLS support for FR-V FDPIC.
* reloc.c: Add TLS relocations.
* elf32-frv.c (elf32_frv_howto_table): Add TLS relocations.
(elf32_frv_rel_tlsdesc_value_howto): New.
(elf32_frv_rel_tlsoff_howto): New.
(frv_reloc_map): Add new mappings.
(struct frvfdpic_elf_link_hash_table): Add pointer to summary
reloc information.
(frvfdpic_dynamic_got_plt_info): New.
(frvfdpic_plt_tls_ret_offset): New.
(ELF_DYNAMIC_INTERPRETER, DEFAULT_STACK_SIZE): Move earlier.
(struct _frvfdpic_dynamic_got_info): Likewise.  Add TLS members.
(struct _frvfdpic_dynamic_got_plt_info): Likewise.
(FRVFDPIC_SYM_LOCAL): Regard symbols defined in the absolute
section as local.
(struct frvfdpic_relocs_info): Add TLS fields.
(frvfdpic_relocs_info_hash): Warning clean up.
(frvfdpic_relocs_info_find): Initialize tlsplt_entry.
(frvfdpic_pic_merge_early_relocs_info): Merge TLS fields.
(FRVFDPIC_TLS_BIAS): Define.
(tls_biased_base): New.
(_frvfdpic_emit_got_relocs_plt_entries): Deal with TLS
relocations.
(frv_reloc_type_lookup): Likewise.
(frvfdpic_info_to_howto_rel): Likewise.
(elf32_frv_relocate_section): Likewise.
(_frv_create_got_section): Create the PLT section here.
(elf32_frvfdpic_create_dynamic_sections): Not here.
(_frvfdpic_count_nontls_entries): Move out of...
(_frvfdpic_count_got_plt_entries): ... here.
(_frvfdpic_count_tls_entries): Likewise.  Add TLS support.
(_frvfdpic_count_relocs_fixups): Likewise.  Add relaxation
support.
(_frvfdpic_relax_tls_entries): New.
(_frvfdpic_compute_got_alloc_data): Add TLS support.
(_frvfdpic_get_tlsdesc_entry): New.
(_frvfdpic_assign_got_entries): Add TLS support.
(_frvfdpic_assign_plt_entries): Likewise.
(_frvfdpic_reset_got_plt_entries): New.
(_frvfdpic_size_got_plt): Move out of...
(elf32_frvfdpic_size_dynamic_sections): ... here.
(_frvfdpic_relax_got_plt_entries): New.
(elf32_frvfdpic_relax_section): New.
(elf32_frvfdpic_finish_dynamic_sections): Add TLS sanity check.
(elf32_frv_check_relocs): Add TLS support.
(bfd_elf32_bfd_relax_section): Define for FDPIC.
* libbfd.h, bfd-in2.h: Rebuilt.
cpu/ChangeLog:
2004-11-10  Alexandre Oliva  <aoliva@@redhat.com>
* frv.cpu: Add support for TLS annotations in loads and calll.
* frv.opc (parse_symbolic_address): New.
(parse_ldd_annotation): New.
(parse_call_annotation): New.
(parse_ld_annotation): New.
(parse_ulo16, parse_uslo16): Use parse_symbolic_address.
Introduce TLS relocations.
(parse_d12, parse_s12, parse_u12): Likewise.
(parse_uhi16): Likewise.  Fix constant checking on 64-bit host.
(parse_call_label, print_at): New.
gas/ChangeLog:
* config/tc-frv.c (md_apply_fix3): Mark TLS symbols as such.
2004-12-10  Alexandre Oliva  <aoliva@@redhat.com>
* config/tc-frv.c (frv_pic_ptr): Add tlsmoff support.
2004-11-10  Alexandre Oliva  <aoliva@@redhat.com>
* cgen.c (gas_cgen_parse_operand): Handle
CGEN_PARSE_OPERAND_SYMBOLIC.
* config/tc-frv.c (md_cgen_lookup_reloc): Handle TLS relocations.
(frv_force_relocation): Likewise.  Fix handling of PIC
relocations.
(md_apply_fix3): Likewise.
include/elf/ChangeLog:
2004-12-10  Alexandre Oliva  <aoliva@@redhat.com>
* frv.h: Add R_FRV_TLSMOFF.
2004-11-10  Alexandre Oliva  <aoliva@@redhat.com>
* frv.h: Add TLS relocations.
include/opcode/ChangeLog:
2004-11-10  Alexandre Oliva  <aoliva@@redhat.com>
* cgen.h (enum cgen_parse_operand_type): Add
CGEN_PARSE_OPERAND_SYMBOLIC.
ld/testsuite/ChangeLog:
* ld-frv/fdpic.exp: Add -mfdpic to ASFLAGS.
* ld-frv/tls.exp: Likewise.
2004-11-26  Alexandre Oliva  <aoliva@@redhat.com>
* ld-frv/tls-3.s: New.
* ld-frv/tls-static-3.d: New.
* ld-frv/tls-dynamic-3.d: New.
* ld-frv/tls-pie-3.d: New.
* ld-frv/tls-shared-3.d: New.
* ld-frv/tls-relax-static-3.d: New.
* ld-frv/tls-relax-dynamic-3.d: New.
* ld-frv/tls-relax-pie-3.d: New.
* ld-frv/tls-relax-shared-3.d: New.
* ld-frv/tls.exp: Run the new tests.
* ld-frv/tls-dynamic-2.d: Adjust for improved relaxation.
* ld-frv/tls-relax-dynamic-2.d: Likewise.
* ld-frv/tls-relax-initial-shared-2.d: Likewise.
2004-11-10  Alexandre Oliva  <aoliva@@redhat.com>
* ld-frv/tls-1-dep.s: New.
* ld-frv/tls-1-shared.lds: New.
* ld-frv/tls-1.s: New.
* ld-frv/tls-2.s: New.
* ld-frv/tls-dynamic-1.d: New.
* ld-frv/tls-dynamic-2.d: New.
* ld-frv/tls-initial-shared-2.d: New.
* ld-frv/tls-pie-1.d: New.
* ld-frv/tls-relax-dynamic-1.d: New.
* ld-frv/tls-relax-dynamic-2.d: New.
* ld-frv/tls-relax-initial-shared-2.d: New.
* ld-frv/tls-relax-pie-1.d: New.
* ld-frv/tls-relax-shared-1.d: New.
* ld-frv/tls-relax-shared-2.d: New.
* ld-frv/tls-relax-static-1.d: New.
* ld-frv/tls-shared-1-fail.d: New.
* ld-frv/tls-shared-1.d: New.
* ld-frv/tls-shared-2.d: New.
* ld-frv/tls-static-1.d: New.
* ld-frv/tls.exp: New.
* ld-frv/fdpic-pie-1.d: Adjust for 64-bit host.
* ld-frv/fdpic-pie-2.d: Likewise.
* ld-frv/fdpic-pie-6.d: Likewise.
* ld-frv/fdpic-pie-7.d: Likewise.
* ld-frv/fdpic-pie-8.d: Likewise.
* ld-frv/fdpic-shared-1.d: Likewise.
* ld-frv/fdpic-shared-2.d: Likewise.
* ld-frv/fdpic-shared-3.d: Likewise.
* ld-frv/fdpic-shared-4.d: Likewise.
* ld-frv/fdpic-shared-5.d: Likewise.
* ld-frv/fdpic-shared-6.d: Likewise.
* ld-frv/fdpic-shared-7.d: Likewise.
* ld-frv/fdpic-shared-8.d: Likewise.
* ld-frv/fdpic-shared-local-2.d: Likewise.
* ld-frv/fdpic-shared-local-8.d: Likewise.
* ld-frv/fdpic-static-1.d: Likewise.
* ld-frv/fdpic-static-2.d: Likewise.
* ld-frv/fdpic-static-6.d: Likewise.
* ld-frv/fdpic-static-7.d: Likewise.
* ld-frv/fdpic-static-8.d: Likewise.
opcodes/ChangeLog:
2004-11-10  Alexandre Oliva  <aoliva@@redhat.com>
* frv-asm.c: Rebuilt.
* frv-desc.c: Rebuilt.
* frv-desc.h: Rebuilt.
* frv-dis.c: Rebuilt.
* frv-ibld.c: Rebuilt.
* frv-opc.c: Rebuilt.
* frv-opc.h: Rebuilt.
@
text
@a3 1
#as: -mfdpic
@


1.4
log
@bfd/ChangeLog:
* elf-bfd.h (struct elf_backend_data): Added
elf_backend_omit_section_dynsym.
(_bfd_elf_link_omit_section_dynsym): Declare.
* elf32-frv.c (_frvfdpic_link_omit_section_dynsym): New.
(elf_backend_omit_section_dynsym): Use it for frvfdpic.
* elflink.c (_bfd_elf_link_omit_section_dynsym): Split out of...
(_bfd_elf_link_renumber_dynsyms): ... this function.
* elfxx-target.h (elf_backend_omit_section_dynsym): Default to
_bfd_elf_link_omit_section_dynsym).
(elfNN_bed): Added elf_backend_omit_section_dynsym.
ld/ChangeLog:
* emulparams/elf32frvfd.sh (GENERATE_PIE_SCRIPT): Set to yes.
ld/testsuite/ChangeLog:
* ld-frv/fdpic-pie-1.d: Adjust for pie-specific link script.
* ld-frv/fdpic-pie-2.d: Likewise.
* ld-frv/fdpic-pie-6.d: Likewise.
* ld-frv/fdpic-pie-7.d: Likewise.
* ld-frv/fdpic-pie-8.d: Likewise.
* ld-frv/fdpic-shared-1.d: Likewise.
* ld-frv/fdpic-shared-2.d: Likewise.
* ld-frv/fdpic-shared-3.d: Likewise.
* ld-frv/fdpic-shared-4.d: Likewise.
* ld-frv/fdpic-shared-5.d: Likewise.
* ld-frv/fdpic-shared-6.d: Likewise.
* ld-frv/fdpic-shared-7.d: Likewise.
* ld-frv/fdpic-shared-8.d: Likewise.
* ld-frv/fdpic-shared-local-2.d: Likewise.
* ld-frv/fdpic-shared-local-8.d: Likewise.
@
text
@d36 1
a36 1
 51c:	80 fc ff e8 	setlos 0xffffffe8,gr0
@


1.3
log
@* ld-frv/fdpic*.d: Adjust to compensate for page size change.
@
text
@d11 12
a22 12
000005a8 <\.plt>:
 5a8:	00 00 00 08 	add\.p gr0,gr8,gr0
 5ac:	c0 1a 00 06 	bra 5c4 <F6-0x10>
 5b0:	00 00 00 00 	add\.p gr0,gr0,gr0
 5b4:	c0 1a 00 04 	bra 5c4 <F6-0x10>
 5b8:	00 00 00 10 	add\.p gr0,gr16,gr0
 5bc:	c0 1a 00 02 	bra 5c4 <F6-0x10>
 5c0:	00 00 00 18 	add\.p gr0,gr24,gr0
 5c4:	88 08 f1 40 	ldd @@\(gr15,gr0\),gr4
 5c8:	80 30 40 00 	jmpl @@\(gr4,gr0\)
 5cc:	9c cc ff f0 	lddi @@\(gr15,-16\),gr14
 5d0:	80 30 e0 00 	jmpl @@\(gr14,gr0\)
d25 18
a42 18
000005d4 <F6>:
 5d4:	fe 3f ff fe 	call 5cc <F6-0x8>
 5d8:	80 40 f0 0c 	addi gr15,12,gr0
 5dc:	80 fc 00 24 	setlos 0x24,gr0
 5e0:	80 f4 00 20 	setlo 0x20,gr0
 5e4:	80 f8 00 00 	sethi hi\(0x0\),gr0
 5e8:	80 40 f0 10 	addi gr15,16,gr0
 5ec:	80 fc 00 18 	setlos 0x18,gr0
 5f0:	80 f4 00 1c 	setlo 0x1c,gr0
 5f4:	80 f8 00 00 	sethi hi\(0x0\),gr0
 5f8:	80 40 ff f8 	addi gr15,-8,gr0
 5fc:	80 fc ff e8 	setlos 0xffffffe8,gr0
 600:	80 f4 ff e0 	setlo 0xffe0,gr0
 604:	80 f8 ff ff 	sethi 0xffff,gr0
 608:	80 f4 ff 44 	setlo 0xff44,gr0
 60c:	80 f8 ff ff 	sethi 0xffff,gr0
 610:	80 f4 00 14 	setlo 0x14,gr0
 614:	80 f8 00 00 	sethi hi\(0x0\),gr0
d45 1
a45 1
0000462c <D6>:
d47 3
a49 3
			462c: R_FRV_32	WD0
			4630: R_FRV_FUNCDESC	WFb
			4634: R_FRV_32	WFb
d52 13
a64 13
000046c8 <_GLOBAL_OFFSET_TABLE_-0x20>:
    46c8:	00 00 05 c4 	subxcc\.p gr0,gr4,gr0,icc1
			46c8: R_FRV_FUNCDESC_VALUE	WF9
    46cc:	00 00 00 02 	add\.p gr0,fp,gr0
    46d0:	00 00 05 bc 	subx\.p gr0,gr60,gr0,icc1
			46d0: R_FRV_FUNCDESC_VALUE	WF8
    46d4:	00 00 00 02 	add\.p gr0,fp,gr0
    46d8:	00 00 05 b4 	subx\.p gr0,gr52,gr0,icc1
			46d8: R_FRV_FUNCDESC_VALUE	WF0
    46dc:	00 00 00 02 	add\.p gr0,fp,gr0
    46e0:	00 00 05 ac 	subx\.p gr0,gr44,gr0,icc1
			46e0: R_FRV_FUNCDESC_VALUE	WF7
    46e4:	00 00 00 02 	add\.p gr0,fp,gr0
d66 1
a66 1
000046e8 <_GLOBAL_OFFSET_TABLE_>:
d68 7
a74 7
			46f4: R_FRV_32	WF1
			46f8: R_FRV_FUNCDESC	WF4
			46fc: R_FRV_32	WD2
			4700: R_FRV_FUNCDESC	WF5
			4704: R_FRV_FUNCDESC	WF6
			4708: R_FRV_32	WF3
			470c: R_FRV_32	WF2
@


1.2
log
@* ld-frv/fdpic-pie-2.d: Adjust for decay of FUNCDESC relocs that
bind locally.
* ld-frv/fdpic-pie-8.d: Likewise.
* ld-frv/fdpic-shared-4.d: Likewise.
* ld-frv/fdpic-pie-6-fail.d: Renamed from...
* ld-frv/fdpic-pie-6.d: New test.
* ld-frv/fdpic-shared-6-fail.d: Renamed from...
* ld-frv/fdpic-shared-6.d: New test.
* ld-frv/fdpic6.ldv: New.
* ld-frv/fdpic-static-6.d: Adjust test name.
* ld-frv/fdpic-pie-8-fail.d: Removed.
* ld-frv/fdpic.exp: Run new tests.
@
text
@d45 1
a45 1
0001062c <D6>:
d47 3
a49 3
			1062c: R_FRV_32	WD0
			10630: R_FRV_FUNCDESC	WFb
			10634: R_FRV_32	WFb
d52 13
a64 13
000106c8 <_GLOBAL_OFFSET_TABLE_-0x20>:
   106c8:	00 00 05 c4 	subxcc\.p gr0,gr4,gr0,icc1
			106c8: R_FRV_FUNCDESC_VALUE	WF9
   106cc:	00 00 00 02 	add\.p gr0,fp,gr0
   106d0:	00 00 05 bc 	subx\.p gr0,gr60,gr0,icc1
			106d0: R_FRV_FUNCDESC_VALUE	WF8
   106d4:	00 00 00 02 	add\.p gr0,fp,gr0
   106d8:	00 00 05 b4 	subx\.p gr0,gr52,gr0,icc1
			106d8: R_FRV_FUNCDESC_VALUE	WF0
   106dc:	00 00 00 02 	add\.p gr0,fp,gr0
   106e0:	00 00 05 ac 	subx\.p gr0,gr44,gr0,icc1
			106e0: R_FRV_FUNCDESC_VALUE	WF7
   106e4:	00 00 00 02 	add\.p gr0,fp,gr0
d66 1
a66 1
000106e8 <_GLOBAL_OFFSET_TABLE_>:
d68 7
a74 7
			106f4: R_FRV_32	WF1
			106f8: R_FRV_FUNCDESC	WF4
			106fc: R_FRV_32	WD2
			10700: R_FRV_FUNCDESC	WF5
			10704: R_FRV_FUNCDESC	WF6
			10708: R_FRV_32	WF3
			1070c: R_FRV_32	WF2
@


1.1
log
@* ld-frv: Update .d files with correct addresses displayed for
dynamic relocations.
2003-12-02  Alexandre Oliva  <aoliva@@redhat.com>
* ld-frv/fdpic1.s (.D0): Move to separate data section.
2003-11-28  Alexandre Oliva  <aoliva@@redhat.com>
* ld-frv/fdpic-static-1.d, ld-frv/fdpic-static-2.d,
* ld-frv/fdpic-static-7.d, ld-frv/fdpic-static-8.d: Update to
reflect EMBEDDED= change in linker script.
2003-11-27  Alexandre Oliva  <aoliva@@redhat.com>
* ld-frv: Update .d files to reflect changes in the page size, the
addition of a stack segment, the use of a NULL function descriptor
for weakundef functions and the change in the lazy funcdesc_value
in-place addend value.
2003-11-05  Alexandre Oliva  <aoliva@@redhat.com>
* lib/ld-lib.exp (is_elf_format): Match frv-uclinux.
2003-10-06  Alexandre Oliva  <aoliva@@redhat.com>
* ld-frv/fdpic-static-1.d, ld-frv/fdpic-static-2.d,
ld-frv/fdpic-static-7.d, ld-frv/fdpic-static-8.d: Addresses are
now _gp-based, not .rofixup-based.
* ld-frv/fdpic-static-6.d: Likewise.  Match warning about
relocation to different section.
2003-09-30  Alexandre Oliva  <aoliva@@redhat.com>
* ld-frv/fdpic.exp: Add -melf32frvfd to LDFLAGS.
2003-09-19  Alexandre Oliva  <aoliva@@redhat.com>
* ld-frv/fdpic7.s, ld-frv/fdpic-static-7.d, ld-frv/fdpic-pie-7.d,
ld-frv/fdpic-shared-7.d: New.
* ld-frv/fdpic8.s, ld-frv/fdpic-static-8.d, ld-frv/fdpic-pie-8.d,
ld-frv/fdpic-shared-8.d: New.
* ld-frv/fdpic-pie-8-fail.d, ld-frv/fdpic-shared-8-fail.d: New.
* ld-frv/fdpic.exp: Run them.
* ld-frv/fdpic8.ldv, ld-frv/fdpic8min.ldv: New.
2003-09-18  Alexandre Oliva  <aoliva@@redhat.com>
* ld-frv/fdpic5.s, ld-frv/fdpic-static-5.d, ld-frv/fdpic-pie-5.d,
ld-frv/fdpic-shared-5.d: New.
* ld-frv/fdpic6.s, ld-frv/fdpic-static-6.d, ld-frv/fdpic-pie-6.d,
ld-frv/fdpic-shared-6.d: New.
* ld-frv/fdpic.exp: Run them.
* ld-frv/fdpic*.d: Add -mfdpic to assembler flags.  Updated.
* ld-frv/fdpic2min.ldv: New, used by fdpic-shared-2.d.
* ld-frv/fdpic-shared-2-fail.d: New.
* ld-frv/fdpic.exp: Run it.
* ld-frv/fdpic4.s, ld-frv/fdpic-shared-4.d: New.
* ld-frv/fdpic.exp: Add new test.
* ld-frv/fdpic-pie-2.d: Remove unnecessary function descriptors.
* ld-frv/fdpic-shared-local-2.d, ld-frv/fdpic2.ldv: New.
* ld-frv/fdpic3.s, ld-frv/fdpic-shared-3.d: New.
* ld-frv/fdpic.exp: Add new tests.
* ld-frv/fdpic.exp, ld-frv/fdpic1.s, ld-frv/fdpic2.s,
* ld-frv/fdpic-static-1.d, ld-frv/fdpic-static-2.d,
* ld-frv/fdpic-pie-1.d, ld-frv/fdpic-pie-2.d,
* ld-frv/fdpic-shared-1.d, ld-frv/fdpic-shared-2.d: Renamed from
ucpic.
2003-09-15  Alexandre Oliva  <aoliva@@redhat.com>
* ld-frv/ucpic.exp, ld-frv/ucpic1.s, ld-frv/ucpic2.s: New.
* ld-frv/ucpic-static-1.d, ld-frv/ucpic-static-2.d: New.
* ld-frv/ucpic-pie-1.d, ld-frv/ucpic-pie-2.d: New.
* ld-frv/ucpic-shared-1.d, ld-frv/ucpic-shared-2.d: New.
@
text
@d1 1
a1 1
#name: FRV uClinux PIC relocs to undefined symbols, pie linking
d5 70
a74 2
#ld: -pie
#error: different segments
@


1.1.6.1
log
@Merge to 2.15 branch.
@
text
@d1 1
a1 1
#name: FRV uClinux PIC relocs to weak undefined symbols, pie linking
d5 2
a6 70
#ld: -pie --defsym WD1=D6

.*:     file format elf.*frv.*

Disassembly of section \.plt:

000005a8 <\.plt>:
 5a8:	00 00 00 08 	add\.p gr0,gr8,gr0
 5ac:	c0 1a 00 06 	bra 5c4 <F6-0x10>
 5b0:	00 00 00 00 	add\.p gr0,gr0,gr0
 5b4:	c0 1a 00 04 	bra 5c4 <F6-0x10>
 5b8:	00 00 00 10 	add\.p gr0,gr16,gr0
 5bc:	c0 1a 00 02 	bra 5c4 <F6-0x10>
 5c0:	00 00 00 18 	add\.p gr0,gr24,gr0
 5c4:	88 08 f1 40 	ldd @@\(gr15,gr0\),gr4
 5c8:	80 30 40 00 	jmpl @@\(gr4,gr0\)
 5cc:	9c cc ff f0 	lddi @@\(gr15,-16\),gr14
 5d0:	80 30 e0 00 	jmpl @@\(gr14,gr0\)
Disassembly of section \.text:

000005d4 <F6>:
 5d4:	fe 3f ff fe 	call 5cc <F6-0x8>
 5d8:	80 40 f0 0c 	addi gr15,12,gr0
 5dc:	80 fc 00 24 	setlos 0x24,gr0
 5e0:	80 f4 00 20 	setlo 0x20,gr0
 5e4:	80 f8 00 00 	sethi hi\(0x0\),gr0
 5e8:	80 40 f0 10 	addi gr15,16,gr0
 5ec:	80 fc 00 18 	setlos 0x18,gr0
 5f0:	80 f4 00 1c 	setlo 0x1c,gr0
 5f4:	80 f8 00 00 	sethi hi\(0x0\),gr0
 5f8:	80 40 ff f8 	addi gr15,-8,gr0
 5fc:	80 fc ff e8 	setlos 0xffffffe8,gr0
 600:	80 f4 ff e0 	setlo 0xffe0,gr0
 604:	80 f8 ff ff 	sethi 0xffff,gr0
 608:	80 f4 ff 44 	setlo 0xff44,gr0
 60c:	80 f8 ff ff 	sethi 0xffff,gr0
 610:	80 f4 00 14 	setlo 0x14,gr0
 614:	80 f8 00 00 	sethi hi\(0x0\),gr0
Disassembly of section \.data:

0000462c <D6>:
	\.\.\.
			462c: R_FRV_32	WD0
			4630: R_FRV_FUNCDESC	WFb
			4634: R_FRV_32	WFb
Disassembly of section \.got:

000046c8 <_GLOBAL_OFFSET_TABLE_-0x20>:
    46c8:	00 00 05 c4 	subxcc\.p gr0,gr4,gr0,icc1
			46c8: R_FRV_FUNCDESC_VALUE	WF9
    46cc:	00 00 00 02 	add\.p gr0,fp,gr0
    46d0:	00 00 05 bc 	subx\.p gr0,gr60,gr0,icc1
			46d0: R_FRV_FUNCDESC_VALUE	WF8
    46d4:	00 00 00 02 	add\.p gr0,fp,gr0
    46d8:	00 00 05 b4 	subx\.p gr0,gr52,gr0,icc1
			46d8: R_FRV_FUNCDESC_VALUE	WF0
    46dc:	00 00 00 02 	add\.p gr0,fp,gr0
    46e0:	00 00 05 ac 	subx\.p gr0,gr44,gr0,icc1
			46e0: R_FRV_FUNCDESC_VALUE	WF7
    46e4:	00 00 00 02 	add\.p gr0,fp,gr0

000046e8 <_GLOBAL_OFFSET_TABLE_>:
	\.\.\.
			46f4: R_FRV_32	WF1
			46f8: R_FRV_FUNCDESC	WF4
			46fc: R_FRV_32	WD2
			4700: R_FRV_FUNCDESC	WF5
			4704: R_FRV_FUNCDESC	WF6
			4708: R_FRV_32	WF3
			470c: R_FRV_32	WF2
@


