head	1.5;
access;
symbols
	binutils-2_24-branch:1.5.0.2
	binutils-2_24-branchpoint:1.5
	binutils-2_21_1:1.3
	binutils-2_23_2:1.3.18.1
	binutils-2_23_1:1.3.18.1
	binutils-2_23:1.3.18.1
	binutils-2_23-branch:1.3.0.18
	binutils-2_23-branchpoint:1.3
	binutils-2_22_branch:1.3.0.16
	binutils-2_22:1.3
	binutils-2_22-branch:1.3.0.14
	binutils-2_22-branchpoint:1.3
	binutils-2_21:1.3
	binutils-2_21-branch:1.3.0.12
	binutils-2_21-branchpoint:1.3
	binutils-2_20_1:1.3
	binutils-2_20:1.3
	binutils-arc-20081103-branch:1.3.0.10
	binutils-arc-20081103-branchpoint:1.3
	binutils-2_20-branch:1.3.0.8
	binutils-2_20-branchpoint:1.3
	dje-cgen-play1-branch:1.3.0.6
	dje-cgen-play1-branchpoint:1.3
	arc-20081103-branch:1.3.0.4
	arc-20081103-branchpoint:1.3
	binutils-2_19_1:1.3
	binutils-2_19:1.3
	binutils-2_19-branch:1.3.0.2
	binutils-2_19-branchpoint:1.3
	binutils-2_18:1.2
	binutils-2_18-branch:1.2.0.12
	binutils-2_18-branchpoint:1.2
	binutils-csl-coldfire-4_1-32:1.2
	binutils-csl-sourcerygxx-4_1-32:1.2
	binutils-csl-innovasic-fido-3_4_4-33:1.2
	binutils-csl-sourcerygxx-3_4_4-32:1.2
	binutils-csl-coldfire-4_1-30:1.2
	binutils-csl-sourcerygxx-4_1-30:1.2
	binutils-csl-coldfire-4_1-28:1.2
	binutils-csl-sourcerygxx-4_1-29:1.2
	binutils-csl-sourcerygxx-4_1-28:1.2
	binutils-csl-arm-2006q3-27:1.2
	binutils-csl-sourcerygxx-4_1-27:1.2
	binutils-csl-arm-2006q3-26:1.2
	binutils-csl-sourcerygxx-4_1-26:1.2
	binutils-csl-sourcerygxx-4_1-25:1.2
	binutils-csl-sourcerygxx-4_1-24:1.2
	binutils-csl-sourcerygxx-4_1-23:1.2
	binutils-csl-sourcerygxx-4_1-21:1.2
	binutils-csl-arm-2006q3-21:1.2
	binutils-csl-sourcerygxx-4_1-22:1.2
	binutils-csl-palmsource-arm-prelinker-1_0-1:1.2
	binutils-csl-sourcerygxx-4_1-20:1.2
	binutils-csl-arm-2006q3-19:1.2
	binutils-csl-sourcerygxx-4_1-19:1.2
	binutils-csl-sourcerygxx-4_1-18:1.2
	binutils-csl-renesas-4_1-9:1.2
	binutils-csl-sourcerygxx-3_4_4-25:1.2
	binutils-csl-renesas-4_1-8:1.2
	binutils-csl-renesas-4_1-7:1.2
	binutils-csl-renesas-4_1-6:1.2
	binutils-csl-sourcerygxx-4_1-17:1.2
	binutils-csl-sourcerygxx-4_1-14:1.2
	binutils-csl-sourcerygxx-4_1-15:1.2
	binutils-csl-sourcerygxx-4_1-13:1.2
	binutils-2_17:1.2
	binutils-csl-sourcerygxx-4_1-12:1.2
	binutils-csl-sourcerygxx-3_4_4-21:1.2
	binutils-csl-wrs-linux-3_4_4-24:1.2
	binutils-csl-wrs-linux-3_4_4-23:1.2
	binutils-csl-sourcerygxx-4_1-9:1.2
	binutils-csl-sourcerygxx-4_1-8:1.2
	binutils-csl-sourcerygxx-4_1-7:1.2
	binutils-csl-arm-2006q1-6:1.2
	binutils-csl-sourcerygxx-4_1-6:1.2
	binutils-csl-wrs-linux-3_4_4-22:1.2
	binutils-csl-coldfire-4_1-11:1.2
	binutils-csl-sourcerygxx-3_4_4-19:1.2
	binutils-csl-coldfire-4_1-10:1.2
	binutils-csl-sourcerygxx-4_1-5:1.2
	binutils-csl-sourcerygxx-4_1-4:1.2
	binutils-csl-wrs-linux-3_4_4-21:1.2
	binutils-csl-morpho-4_1-4:1.2
	binutils-csl-sourcerygxx-3_4_4-17:1.2
	binutils-csl-wrs-linux-3_4_4-20:1.2
	binutils-2_17-branch:1.2.0.10
	binutils-2_17-branchpoint:1.2
	binutils-csl-2_17-branch:1.2.0.8
	binutils-csl-2_17-branchpoint:1.2
	binutils-csl-gxxpro-3_4-branch:1.2.0.6
	binutils-csl-gxxpro-3_4-branchpoint:1.2
	binutils-2_16_1:1.2
	binutils-csl-arm-2005q1b:1.2
	binutils-2_16:1.2
	binutils-csl-arm-2005q1a:1.2
	binutils-csl-arm-2005q1-branch:1.2.0.4
	binutils-csl-arm-2005q1-branchpoint:1.2
	binutils-2_16-branch:1.2.0.2
	binutils-2_16-branchpoint:1.2
	csl-arm-2004-q3d:1.1
	csl-arm-2004-q3:1.1
	binutils-2_15:1.1
	binutils-2_15-branchpoint:1.1
	csl-arm-2004-q1a:1.1
	csl-arm-2004-q1:1.1
	binutils-2_15-branch:1.1.0.8
	cagney_bfdfile-20040213-branch:1.1.0.6
	cagney_bfdfile-20040213-branchpoint:1.1
	cagney_bigcore-20040122-branch:1.1.0.4
	cagney_bigcore-20040122-branchpoint:1.1
	csl-arm-2003-q4:1.1
	binutils-2_14:1.1
	binutils-2_14-branch:1.1.0.2
	binutils-2_14-branchpoint:1.1
	binutils_latest_snapshot:1.5;
locks; strict;
comment	@# @;


1.5
date	2012.08.06.21.28.45;	author macro;	state Exp;
branches;
next	1.4;

1.4
date	2012.08.06.21.05.54;	author macro;	state Exp;
branches;
next	1.3;

1.3
date	2008.03.20.10.52.14;	author rsandifo;	state Exp;
branches
	1.3.18.1;
next	1.2;

1.2
date	2005.01.31.22.00.59;	author drow;	state Exp;
branches;
next	1.1;

1.1
date	2003.04.11.01.56.49;	author aoliva;	state Exp;
branches;
next	;

1.3.18.1
date	2012.09.04.14.38.02;	author gingold;	state Exp;
branches;
next	;


desc
@@


1.5
log
@	gas/testsuite/
	* gas/mips/mips.exp: Set has_newabi for all Linux targets.
	* gas/mips/cfi-n64-1.d: Adjust for targets that do not infer the
	ISA from the ABI.
	* gas/mips/elf-rel-got-n32.d: Likewise.
	* gas/mips/elf-rel-got-n64.d: Likewise.
	* gas/mips/elf-rel-xgot-n32.d: Likewise.
	* gas/mips/elf-rel-xgot-n64.d: Likewise.
	* gas/mips/elf-rel18.d: Likewise.
	* gas/mips/elf-rel28-n32.d: Likewise.
	* gas/mips/elf-rel28-n64.d: Likewise.
	* gas/mips/jal-newabi.d: Likewise.
	* gas/mips/ldstla-n64-shared.d: Likewise.
	* gas/mips/ldstla-n64-sym32.d: Likewise.
	* gas/mips/ldstla-n64.d: Likewise.
	* gas/mips/macro-warn-1-n32.d: Likewise.
	* gas/mips/macro-warn-2-n32.d: Likewise.
	* gas/mips/n32-consec.d: Likewise.

	ld/testsuite/
	* ld-mips-elf/mips-elf.exp: Set has_newabi for all Linux targets.
	Adjust abi_asflags for targets that do not infer the ISA from the
	ABI.
	* ld-mips-elf/eh-frame1-n32.d: Adjust for targets that do not
	infer the ISA from the ABI.
	* ld-mips-elf/eh-frame1-n64.d: Likewise.
	* ld-mips-elf/eh-frame2-n32.d: Likewise.
	* ld-mips-elf/eh-frame2-n64.d: Likewise.
	* ld-mips-elf/elf-rel-got-n32-embed.d: Likewise.
	* ld-mips-elf/elf-rel-got-n32.d: Likewise.
	* ld-mips-elf/elf-rel-got-n64-embed.d: Likewise.
	* ld-mips-elf/elf-rel-got-n64-linux.d: Likewise.
	* ld-mips-elf/elf-rel-got-n64.d: Likewise.
	* ld-mips-elf/elf-rel-xgot-n32-embed.d: Likewise.
	* ld-mips-elf/elf-rel-xgot-n32.d: Likewise.
	* ld-mips-elf/elf-rel-xgot-n64-embed.d: Likewise.
	* ld-mips-elf/elf-rel-xgot-n64-linux.d: Likewise.
	* ld-mips-elf/elf-rel-xgot-n64.d: Likewise.
	* ld-mips-elf/emit-relocs-1.d: Likewise.
	* ld-mips-elf/got-page-2.d: Likewise.
	* ld-mips-elf/no-shared-1-n32.d: Likewise.
	* ld-mips-elf/no-shared-1-n64.d: Likewise.
	* ld-mips-elf/rel32-n32.d: Likewise.
	* ld-mips-elf/rel64.d: Likewise.
	* ld-mips-elf/relax-jalr-n32-shared.d: Likewise.
	* ld-mips-elf/relax-jalr-n32.d: Likewise.
	* ld-mips-elf/relax-jalr-n64-shared.d: Likewise.
	* ld-mips-elf/relax-jalr-n64.d: Likewise.
	* ld-mips-elf/reloc-1-n32.d: Likewise.
	* ld-mips-elf/reloc-1-n64.d: Likewise.
	* ld-mips-elf/textrel-1.d: Likewise.
@
text
@#name: MIPS ELF xgot reloc n64
#as: -march=from-abi -EB -64 -KPIC -xgot
#source: ../../../gas/testsuite/gas/mips/elf-rel-got-n64.s
#ld:
#objdump: -D --show-raw-insn

.*: +file format elf64-.*mips.*

Disassembly of section \.MIPS\.options:

00000000100000e8 <\.MIPS\.options>:
    100000e8:	01280000 	.*
    100000ec:	00000000 	.*
    100000f0:	92020022 	.*
	\.\.\.
    1000010c:	10018800 	.*
Disassembly of section \.text:

0000000010000110 <fn>:
    10000110:	3c050000 	lui	a1,0x0
    10000114:	00bc282d 	daddu	a1,a1,gp
    10000118:	dca58020 	ld	a1,-32736\(a1\)
    1000011c:	3c050000 	lui	a1,0x0
    10000120:	00bc282d 	daddu	a1,a1,gp
    10000124:	dca58020 	ld	a1,-32736\(a1\)
    10000128:	64a5000c 	daddiu	a1,a1,12
    1000012c:	3c050000 	lui	a1,0x0
    10000130:	00bc282d 	daddu	a1,a1,gp
    10000134:	dca58020 	ld	a1,-32736\(a1\)
    10000138:	3c010001 	lui	at,0x1
    1000013c:	3421e240 	ori	at,at,0xe240
    10000140:	00a1282d 	daddu	a1,a1,at
    10000144:	3c050000 	lui	a1,0x0
    10000148:	00bc282d 	daddu	a1,a1,gp
    1000014c:	dca58020 	ld	a1,-32736\(a1\)
    10000150:	00b1282d 	daddu	a1,a1,s1
    10000154:	3c050000 	lui	a1,0x0
    10000158:	00bc282d 	daddu	a1,a1,gp
    1000015c:	dca58020 	ld	a1,-32736\(a1\)
    10000160:	64a5000c 	daddiu	a1,a1,12
    10000164:	00b1282d 	daddu	a1,a1,s1
    10000168:	3c050000 	lui	a1,0x0
    1000016c:	00bc282d 	daddu	a1,a1,gp
    10000170:	dca58020 	ld	a1,-32736\(a1\)
    10000174:	3c010001 	lui	at,0x1
    10000178:	3421e240 	ori	at,at,0xe240
    1000017c:	00a1282d 	daddu	a1,a1,at
    10000180:	00b1282d 	daddu	a1,a1,s1
    10000184:	3c050000 	lui	a1,0x0
    10000188:	00bc282d 	daddu	a1,a1,gp
    1000018c:	dca58020 	ld	a1,-32736\(a1\)
    10000190:	dca50000 	ld	a1,0\(a1\)
    10000194:	3c050000 	lui	a1,0x0
    10000198:	00bc282d 	daddu	a1,a1,gp
    1000019c:	dca58020 	ld	a1,-32736\(a1\)
    100001a0:	dca5000c 	ld	a1,12\(a1\)
    100001a4:	3c050000 	lui	a1,0x0
    100001a8:	00bc282d 	daddu	a1,a1,gp
    100001ac:	dca58020 	ld	a1,-32736\(a1\)
    100001b0:	00b1282d 	daddu	a1,a1,s1
    100001b4:	dca50000 	ld	a1,0\(a1\)
    100001b8:	3c050000 	lui	a1,0x0
    100001bc:	00bc282d 	daddu	a1,a1,gp
    100001c0:	dca58020 	ld	a1,-32736\(a1\)
    100001c4:	00b1282d 	daddu	a1,a1,s1
    100001c8:	dca5000c 	ld	a1,12\(a1\)
    100001cc:	3c010000 	lui	at,0x0
    100001d0:	003c082d 	daddu	at,at,gp
    100001d4:	dc218020 	ld	at,-32736\(at\)
    100001d8:	0025082d 	daddu	at,at,a1
    100001dc:	dc250022 	ld	a1,34\(at\)
    100001e0:	3c010000 	lui	at,0x0
    100001e4:	003c082d 	daddu	at,at,gp
    100001e8:	dc218020 	ld	at,-32736\(at\)
    100001ec:	0025082d 	daddu	at,at,a1
    100001f0:	fc250038 	sd	a1,56\(at\)
    100001f4:	3c010000 	lui	at,0x0
    100001f8:	003c082d 	daddu	at,at,gp
    100001fc:	dc218020 	ld	at,-32736\(at\)
    10000200:	88250000 	lwl	a1,0\(at\)
    10000204:	98250003 	lwr	a1,3\(at\)
    10000208:	3c010000 	lui	at,0x0
    1000020c:	003c082d 	daddu	at,at,gp
    10000210:	dc218020 	ld	at,-32736\(at\)
    10000214:	6421000c 	daddiu	at,at,12
    10000218:	88250000 	lwl	a1,0\(at\)
    1000021c:	98250003 	lwr	a1,3\(at\)
    10000220:	3c010000 	lui	at,0x0
    10000224:	003c082d 	daddu	at,at,gp
    10000228:	dc218020 	ld	at,-32736\(at\)
    1000022c:	0031082d 	daddu	at,at,s1
    10000230:	88250000 	lwl	a1,0\(at\)
    10000234:	98250003 	lwr	a1,3\(at\)
    10000238:	3c010000 	lui	at,0x0
    1000023c:	003c082d 	daddu	at,at,gp
    10000240:	dc218020 	ld	at,-32736\(at\)
    10000244:	6421000c 	daddiu	at,at,12
    10000248:	0031082d 	daddu	at,at,s1
    1000024c:	88250000 	lwl	a1,0\(at\)
    10000250:	98250003 	lwr	a1,3\(at\)
    10000254:	3c010000 	lui	at,0x0
    10000258:	003c082d 	daddu	at,at,gp
    1000025c:	dc218020 	ld	at,-32736\(at\)
    10000260:	64210022 	daddiu	at,at,34
    10000264:	0025082d 	daddu	at,at,a1
    10000268:	88250000 	lwl	a1,0\(at\)
    1000026c:	98250003 	lwr	a1,3\(at\)
    10000270:	3c010000 	lui	at,0x0
    10000274:	003c082d 	daddu	at,at,gp
    10000278:	dc218020 	ld	at,-32736\(at\)
    1000027c:	64210038 	daddiu	at,at,56
    10000280:	0025082d 	daddu	at,at,a1
    10000284:	a8250000 	swl	a1,0\(at\)
    10000288:	b8250003 	swr	a1,3\(at\)
    1000028c:	df858028 	ld	a1,-32728\(gp\)
    10000290:	64a5075c 	daddiu	a1,a1,1884
    10000294:	df858028 	ld	a1,-32728\(gp\)
    10000298:	64a50768 	daddiu	a1,a1,1896
    1000029c:	df858030 	ld	a1,-32720\(gp\)
    100002a0:	64a5e99c 	daddiu	a1,a1,-5732
    100002a4:	df858028 	ld	a1,-32728\(gp\)
    100002a8:	64a5075c 	daddiu	a1,a1,1884
    100002ac:	00b1282d 	daddu	a1,a1,s1
    100002b0:	df858028 	ld	a1,-32728\(gp\)
    100002b4:	64a50768 	daddiu	a1,a1,1896
    100002b8:	00b1282d 	daddu	a1,a1,s1
    100002bc:	df858030 	ld	a1,-32720\(gp\)
    100002c0:	64a5e99c 	daddiu	a1,a1,-5732
    100002c4:	00b1282d 	daddu	a1,a1,s1
    100002c8:	df858028 	ld	a1,-32728\(gp\)
    100002cc:	dca5075c 	ld	a1,1884\(a1\)
    100002d0:	df858028 	ld	a1,-32728\(gp\)
    100002d4:	dca50768 	ld	a1,1896\(a1\)
    100002d8:	df858028 	ld	a1,-32728\(gp\)
    100002dc:	00b1282d 	daddu	a1,a1,s1
    100002e0:	dca5075c 	ld	a1,1884\(a1\)
    100002e4:	df858028 	ld	a1,-32728\(gp\)
    100002e8:	00b1282d 	daddu	a1,a1,s1
    100002ec:	dca50768 	ld	a1,1896\(a1\)
    100002f0:	df818028 	ld	at,-32728\(gp\)
    100002f4:	0025082d 	daddu	at,at,a1
    100002f8:	dc25077e 	ld	a1,1918\(at\)
    100002fc:	df818028 	ld	at,-32728\(gp\)
    10000300:	0025082d 	daddu	at,at,a1
    10000304:	fc250794 	sd	a1,1940\(at\)
    10000308:	df818028 	ld	at,-32728\(gp\)
    1000030c:	6421075c 	daddiu	at,at,1884
    10000310:	88250000 	lwl	a1,0\(at\)
    10000314:	98250003 	lwr	a1,3\(at\)
    10000318:	df818028 	ld	at,-32728\(gp\)
    1000031c:	64210768 	daddiu	at,at,1896
    10000320:	88250000 	lwl	a1,0\(at\)
    10000324:	98250003 	lwr	a1,3\(at\)
    10000328:	df818028 	ld	at,-32728\(gp\)
    1000032c:	6421075c 	daddiu	at,at,1884
    10000330:	0031082d 	daddu	at,at,s1
    10000334:	88250000 	lwl	a1,0\(at\)
    10000338:	98250003 	lwr	a1,3\(at\)
    1000033c:	df818028 	ld	at,-32728\(gp\)
    10000340:	64210768 	daddiu	at,at,1896
    10000344:	0031082d 	daddu	at,at,s1
    10000348:	88250000 	lwl	a1,0\(at\)
    1000034c:	98250003 	lwr	a1,3\(at\)
    10000350:	df818028 	ld	at,-32728\(gp\)
    10000354:	6421077e 	daddiu	at,at,1918
    10000358:	0025082d 	daddu	at,at,a1
    1000035c:	88250000 	lwl	a1,0\(at\)
    10000360:	98250003 	lwr	a1,3\(at\)
    10000364:	df818028 	ld	at,-32728\(gp\)
    10000368:	64210794 	daddiu	at,at,1940
    1000036c:	0025082d 	daddu	at,at,a1
    10000370:	a8250000 	swl	a1,0\(at\)
    10000374:	b8250003 	swr	a1,3\(at\)
    10000378:	3c050000 	lui	a1,0x0
    1000037c:	00bc282d 	daddu	a1,a1,gp
    10000380:	dca58038 	ld	a1,-32712\(a1\)
    10000384:	df858040 	ld	a1,-32704\(gp\)
    10000388:	64a50110 	daddiu	a1,a1,272
    1000038c:	3c190000 	lui	t9,0x0
    10000390:	033cc82d 	daddu	t9,t9,gp
    10000394:	df398038 	ld	t9,-32712\(t9\)
    10000398:	df998040 	ld	t9,-32704\(gp\)
    1000039c:	67390110 	daddiu	t9,t9,272
    100003a0:	3c190000 	lui	t9,0x0
    100003a4:	033cc82d 	daddu	t9,t9,gp
    100003a8:	df398038 	ld	t9,-32712\(t9\)
    100003ac:	0411ff58 	bal	10000110 <fn>
    100003b0:	00000000 	nop
    100003b4:	df998040 	ld	t9,-32704\(gp\)
    100003b8:	67390110 	daddiu	t9,t9,272
    100003bc:	0411ff54 	bal	10000110 <fn>
    100003c0:	00000000 	nop
    100003c4:	3c050000 	lui	a1,0x0
    100003c8:	00bc282d 	daddu	a1,a1,gp
    100003cc:	dca58048 	ld	a1,-32696\(a1\)
    100003d0:	3c050000 	lui	a1,0x0
    100003d4:	00bc282d 	daddu	a1,a1,gp
    100003d8:	dca58048 	ld	a1,-32696\(a1\)
    100003dc:	64a5000c 	daddiu	a1,a1,12
    100003e0:	3c050000 	lui	a1,0x0
    100003e4:	00bc282d 	daddu	a1,a1,gp
    100003e8:	dca58048 	ld	a1,-32696\(a1\)
    100003ec:	3c010001 	lui	at,0x1
    100003f0:	3421e240 	ori	at,at,0xe240
    100003f4:	00a1282d 	daddu	a1,a1,at
    100003f8:	3c050000 	lui	a1,0x0
    100003fc:	00bc282d 	daddu	a1,a1,gp
    10000400:	dca58048 	ld	a1,-32696\(a1\)
    10000404:	00b1282d 	daddu	a1,a1,s1
    10000408:	3c050000 	lui	a1,0x0
    1000040c:	00bc282d 	daddu	a1,a1,gp
    10000410:	dca58048 	ld	a1,-32696\(a1\)
    10000414:	64a5000c 	daddiu	a1,a1,12
    10000418:	00b1282d 	daddu	a1,a1,s1
    1000041c:	3c050000 	lui	a1,0x0
    10000420:	00bc282d 	daddu	a1,a1,gp
    10000424:	dca58048 	ld	a1,-32696\(a1\)
    10000428:	3c010001 	lui	at,0x1
    1000042c:	3421e240 	ori	at,at,0xe240
    10000430:	00a1282d 	daddu	a1,a1,at
    10000434:	00b1282d 	daddu	a1,a1,s1
    10000438:	3c050000 	lui	a1,0x0
    1000043c:	00bc282d 	daddu	a1,a1,gp
    10000440:	dca58048 	ld	a1,-32696\(a1\)
    10000444:	dca50000 	ld	a1,0\(a1\)
    10000448:	3c050000 	lui	a1,0x0
    1000044c:	00bc282d 	daddu	a1,a1,gp
    10000450:	dca58048 	ld	a1,-32696\(a1\)
    10000454:	dca5000c 	ld	a1,12\(a1\)
    10000458:	3c050000 	lui	a1,0x0
    1000045c:	00bc282d 	daddu	a1,a1,gp
    10000460:	dca58048 	ld	a1,-32696\(a1\)
    10000464:	00b1282d 	daddu	a1,a1,s1
    10000468:	dca50000 	ld	a1,0\(a1\)
    1000046c:	3c050000 	lui	a1,0x0
    10000470:	00bc282d 	daddu	a1,a1,gp
    10000474:	dca58048 	ld	a1,-32696\(a1\)
    10000478:	00b1282d 	daddu	a1,a1,s1
    1000047c:	dca5000c 	ld	a1,12\(a1\)
    10000480:	3c010000 	lui	at,0x0
    10000484:	003c082d 	daddu	at,at,gp
    10000488:	dc218048 	ld	at,-32696\(at\)
    1000048c:	0025082d 	daddu	at,at,a1
    10000490:	dc250022 	ld	a1,34\(at\)
    10000494:	3c010000 	lui	at,0x0
    10000498:	003c082d 	daddu	at,at,gp
    1000049c:	dc218048 	ld	at,-32696\(at\)
    100004a0:	0025082d 	daddu	at,at,a1
    100004a4:	fc250038 	sd	a1,56\(at\)
    100004a8:	3c010000 	lui	at,0x0
    100004ac:	003c082d 	daddu	at,at,gp
    100004b0:	dc218048 	ld	at,-32696\(at\)
    100004b4:	88250000 	lwl	a1,0\(at\)
    100004b8:	98250003 	lwr	a1,3\(at\)
    100004bc:	3c010000 	lui	at,0x0
    100004c0:	003c082d 	daddu	at,at,gp
    100004c4:	dc218048 	ld	at,-32696\(at\)
    100004c8:	6421000c 	daddiu	at,at,12
    100004cc:	88250000 	lwl	a1,0\(at\)
    100004d0:	98250003 	lwr	a1,3\(at\)
    100004d4:	3c010000 	lui	at,0x0
    100004d8:	003c082d 	daddu	at,at,gp
    100004dc:	dc218048 	ld	at,-32696\(at\)
    100004e0:	0031082d 	daddu	at,at,s1
    100004e4:	88250000 	lwl	a1,0\(at\)
    100004e8:	98250003 	lwr	a1,3\(at\)
    100004ec:	3c010000 	lui	at,0x0
    100004f0:	003c082d 	daddu	at,at,gp
    100004f4:	dc218048 	ld	at,-32696\(at\)
    100004f8:	6421000c 	daddiu	at,at,12
    100004fc:	0031082d 	daddu	at,at,s1
    10000500:	88250000 	lwl	a1,0\(at\)
    10000504:	98250003 	lwr	a1,3\(at\)
    10000508:	3c010000 	lui	at,0x0
    1000050c:	003c082d 	daddu	at,at,gp
    10000510:	dc218048 	ld	at,-32696\(at\)
    10000514:	64210022 	daddiu	at,at,34
    10000518:	0025082d 	daddu	at,at,a1
    1000051c:	88250000 	lwl	a1,0\(at\)
    10000520:	98250003 	lwr	a1,3\(at\)
    10000524:	3c010000 	lui	at,0x0
    10000528:	003c082d 	daddu	at,at,gp
    1000052c:	dc218048 	ld	at,-32696\(at\)
    10000530:	64210038 	daddiu	at,at,56
    10000534:	0025082d 	daddu	at,at,a1
    10000538:	a8250000 	swl	a1,0\(at\)
    1000053c:	b8250003 	swr	a1,3\(at\)
    10000540:	df858028 	ld	a1,-32728\(gp\)
    10000544:	64a507d4 	daddiu	a1,a1,2004
    10000548:	df858028 	ld	a1,-32728\(gp\)
    1000054c:	64a507e0 	daddiu	a1,a1,2016
    10000550:	df858030 	ld	a1,-32720\(gp\)
    10000554:	64a5ea14 	daddiu	a1,a1,-5612
    10000558:	df858028 	ld	a1,-32728\(gp\)
    1000055c:	64a507d4 	daddiu	a1,a1,2004
    10000560:	00b1282d 	daddu	a1,a1,s1
    10000564:	df858028 	ld	a1,-32728\(gp\)
    10000568:	64a507e0 	daddiu	a1,a1,2016
    1000056c:	00b1282d 	daddu	a1,a1,s1
    10000570:	df858030 	ld	a1,-32720\(gp\)
    10000574:	64a5ea14 	daddiu	a1,a1,-5612
    10000578:	00b1282d 	daddu	a1,a1,s1
    1000057c:	df858028 	ld	a1,-32728\(gp\)
    10000580:	dca507d4 	ld	a1,2004\(a1\)
    10000584:	df858028 	ld	a1,-32728\(gp\)
    10000588:	dca507e0 	ld	a1,2016\(a1\)
    1000058c:	df858028 	ld	a1,-32728\(gp\)
    10000590:	00b1282d 	daddu	a1,a1,s1
    10000594:	dca507d4 	ld	a1,2004\(a1\)
    10000598:	df858028 	ld	a1,-32728\(gp\)
    1000059c:	00b1282d 	daddu	a1,a1,s1
    100005a0:	dca507e0 	ld	a1,2016\(a1\)
    100005a4:	df818028 	ld	at,-32728\(gp\)
    100005a8:	0025082d 	daddu	at,at,a1
    100005ac:	dc2507f6 	ld	a1,2038\(at\)
    100005b0:	df818028 	ld	at,-32728\(gp\)
    100005b4:	0025082d 	daddu	at,at,a1
    100005b8:	fc25080c 	sd	a1,2060\(at\)
    100005bc:	df818028 	ld	at,-32728\(gp\)
    100005c0:	642107d4 	daddiu	at,at,2004
    100005c4:	88250000 	lwl	a1,0\(at\)
    100005c8:	98250003 	lwr	a1,3\(at\)
    100005cc:	df818028 	ld	at,-32728\(gp\)
    100005d0:	642107e0 	daddiu	at,at,2016
    100005d4:	88250000 	lwl	a1,0\(at\)
    100005d8:	98250003 	lwr	a1,3\(at\)
    100005dc:	df818028 	ld	at,-32728\(gp\)
    100005e0:	642107d4 	daddiu	at,at,2004
    100005e4:	0031082d 	daddu	at,at,s1
    100005e8:	88250000 	lwl	a1,0\(at\)
    100005ec:	98250003 	lwr	a1,3\(at\)
    100005f0:	df818028 	ld	at,-32728\(gp\)
    100005f4:	642107e0 	daddiu	at,at,2016
    100005f8:	0031082d 	daddu	at,at,s1
    100005fc:	88250000 	lwl	a1,0\(at\)
    10000600:	98250003 	lwr	a1,3\(at\)
    10000604:	df818028 	ld	at,-32728\(gp\)
    10000608:	642107f6 	daddiu	at,at,2038
    1000060c:	0025082d 	daddu	at,at,a1
    10000610:	88250000 	lwl	a1,0\(at\)
    10000614:	98250003 	lwr	a1,3\(at\)
    10000618:	df818028 	ld	at,-32728\(gp\)
    1000061c:	6421080c 	daddiu	at,at,2060
    10000620:	0025082d 	daddu	at,at,a1
    10000624:	a8250000 	swl	a1,0\(at\)
    10000628:	b8250003 	swr	a1,3\(at\)
    1000062c:	3c050000 	lui	a1,0x0
    10000630:	00bc282d 	daddu	a1,a1,gp
    10000634:	dca58050 	ld	a1,-32688\(a1\)
    10000638:	df858040 	ld	a1,-32704\(gp\)
    1000063c:	64a50710 	daddiu	a1,a1,1808
    10000640:	3c190000 	lui	t9,0x0
    10000644:	033cc82d 	daddu	t9,t9,gp
    10000648:	df398050 	ld	t9,-32688\(t9\)
    1000064c:	df998040 	ld	t9,-32704\(gp\)
    10000650:	67390710 	daddiu	t9,t9,1808
    10000654:	3c190000 	lui	t9,0x0
    10000658:	033cc82d 	daddu	t9,t9,gp
    1000065c:	df398050 	ld	t9,-32688\(t9\)
    10000660:	0411002b 	bal	10000710 <fn2>
    10000664:	00000000 	nop
    10000668:	df998040 	ld	t9,-32704\(gp\)
    1000066c:	67390710 	daddiu	t9,t9,1808
    10000670:	04110027 	bal	10000710 <fn2>
    10000674:	00000000 	nop
    10000678:	3c050000 	lui	a1,0x0
    1000067c:	00bc282d 	daddu	a1,a1,gp
    10000680:	dca58020 	ld	a1,-32736\(a1\)
    10000684:	1000fea2 	b	10000110 <fn>
    10000688:	00000000 	nop
    1000068c:	3c050000 	lui	a1,0x0
    10000690:	00bc282d 	daddu	a1,a1,gp
    10000694:	dca58048 	ld	a1,-32696\(a1\)
    10000698:	dca50000 	ld	a1,0\(a1\)
    1000069c:	1000001c 	b	10000710 <fn2>
    100006a0:	00000000 	nop
    100006a4:	df858028 	ld	a1,-32728\(gp\)
    100006a8:	64a5075c 	daddiu	a1,a1,1884
    100006ac:	1000fe98 	b	10000110 <fn>
    100006b0:	00000000 	nop
    100006b4:	df858028 	ld	a1,-32728\(gp\)
    100006b8:	64a507e0 	daddiu	a1,a1,2016
    100006bc:	10000014 	b	10000710 <fn2>
    100006c0:	00000000 	nop
    100006c4:	df858030 	ld	a1,-32720\(gp\)
    100006c8:	64a5e99c 	daddiu	a1,a1,-5732
    100006cc:	1000fe90 	b	10000110 <fn>
    100006d0:	00000000 	nop
    100006d4:	df858028 	ld	a1,-32728\(gp\)
    100006d8:	dca507d4 	ld	a1,2004\(a1\)
    100006dc:	1000000c 	b	10000710 <fn2>
    100006e0:	00000000 	nop
    100006e4:	df858028 	ld	a1,-32728\(gp\)
    100006e8:	dca50768 	ld	a1,1896\(a1\)
    100006ec:	1000fe88 	b	10000110 <fn>
    100006f0:	00000000 	nop
    100006f4:	df818028 	ld	at,-32728\(gp\)
    100006f8:	0025082d 	daddu	at,at,a1
    100006fc:	dc2507f6 	ld	a1,2038\(at\)
    10000700:	10000003 	b	10000710 <fn2>
    10000704:	00000000 	nop
	\.\.\.

0000000010000710 <fn2>:
	\.\.\.
Disassembly of section \.data:

0000000010010720 <_fdata>:
	\.\.\.

000000001001075c <dg1>:
	\.\.\.

0000000010010798 <sp2>:
	\.\.\.

00000000100107d4 <dg2>:
	\.\.\.
Disassembly of section \.got:

0000000010010810 <_GLOBAL_OFFSET_TABLE_>:
	\.\.\.
    10010818:	80000000 	.*
	\.\.\.
    10010824:	1001075c 	.*
    10010828:	00000000 	.*
    1001082c:	10010000 	.*
    10010830:	00000000 	.*
    10010834:	10030000 	.*
    10010838:	00000000 	.*
    1001083c:	10000110 	.*
    10010840:	00000000 	.*
    10010844:	10000000 	.*
    10010848:	00000000 	.*
    1001084c:	100107d4 	.*
    10010850:	00000000 	.*
    10010854:	10000710 	.*
    10010858:	00000000 	.*
	\.\.\.
@


1.4
log
@	gas/testsuite/
	* gas/mips/mips.exp: Set has_newabi for mips*-sde-elf* too.
	* gas/mips/elf-rel-got-n32.s: Adjust padding.
	* gas/mips/elf-rel-got-n64.s: Likewise.
	* gas/mips/elf-rel23.s: Likewise.
	* gas/mips/elf-rel28.s: Likewise.
	* gas/mips/n32-consec.s: Likewise.
	* gas/mips/elf-rel-xgot-n32.d: Adjust output expected.
	* gas/mips/elf-rel-xgot-n64.d: Likewise.
	* gas/mips/elf-rel23.d: Likewise.
	* gas/mips/elf-rel23a.d: Likewise.
	* gas/mips/elf-rel23b.d: Likewise.
	* gas/mips/elf-rel28-n32.d: Likewise.

	ld/testsuite/
	* lib/ld-lib.exp (run_dump_test): Implement the EXTRA_OPTIONS
	argument and the "dump" keyword.
	* ld-mips-elf/emit-relocs-1a.s: Make section alignment uniform
	across targets.
	* ld-mips-elf/emit-relocs-1b.s: Likewise.
	* ld-mips-elf/jalbal.s: Adjust padding.
	* ld-mips-elf/elf-rel-got-n32-embed.d: New test.
	* ld-mips-elf/elf-rel-got-n64-embed.d: New test.
	* ld-mips-elf/elf-rel-xgot-n32-embed.d: New test.
	* ld-mips-elf/elf-rel-xgot-n64-embed.d: New test.
	* ld-mips-elf/elf-rel-got-n32.d: Remove -melf32btsmipn32.
	* ld-mips-elf/elf-rel-got-n64.d: Remove -melf64btsmip.  Adjust
	output.
	* ld-mips-elf/elf-rel-got-n64-linux.d: Remove -melf64btsmip.
	* ld-mips-elf/elf-rel-xgot-n32.d: Remove -melf32btsmipn32.
	Adjust output.
	* ld-mips-elf/elf-rel-xgot-n64.d: Remove -melf64btsmip.  Adjust
	output.
	* ld-mips-elf/elf-rel-xgot-n64-linux.d: Likewise.
	* ld-mips-elf/reloc-1-n64.d: Remove -melf64btsmip.
	* ld-mips-elf/mips-elf.exp: Set has_newabi for mips*-sde-elf*
	too.  Move tool flags from o32_as_flags and o32_ld_flags
	variables into abi_asflags and abi_ldflags arrays.  Adjust test
	cases run to use them.  Run the new tests.
@
text
@d2 1
a2 1
#as: -EB -64 -KPIC -xgot
@


1.3
log
@bfd/
	* elfxx-mips.c (MIPS_ELF_GNU_GOT1_MASK): New macro.
	(_bfd_mips_elf_finish_dynamic_sections): Use it instead of 0x80000000.

ld/testsuite/
	* ld-mips-elf/elf-rel-got-n64-linux.d: Expect bit 63 rather than
	bit 31 of the second GOT entry to be set.
	* ld-mips-elf/elf-rel-got-n64.d: Likewise.
	* ld-mips-elf/elf-rel-xgot-n64-linux.d: Likewise.
	* ld-mips-elf/elf-rel-xgot-n64.d: Likewise.
@
text
@d4 1
a4 1
#ld: -melf64btsmip
d11 4
a14 4
00000000100000b0 <\.MIPS\.options>:
    100000b0:	01280000 	.*
    100000b4:	00000000 	.*
    100000b8:	92020022 	.*
d16 1
a16 1
    100000d4:	101087c0 	.*
d19 17
a35 29
00000000100000e0 <fn>:
    100000e0:	3c050000 	lui	a1,0x0
    100000e4:	00bc282d 	daddu	a1,a1,gp
    100000e8:	dca58058 	ld	a1,-32680\(a1\)
    100000ec:	3c050000 	lui	a1,0x0
    100000f0:	00bc282d 	daddu	a1,a1,gp
    100000f4:	dca58058 	ld	a1,-32680\(a1\)
    100000f8:	64a5000c 	daddiu	a1,a1,12
    100000fc:	3c050000 	lui	a1,0x0
    10000100:	00bc282d 	daddu	a1,a1,gp
    10000104:	dca58058 	ld	a1,-32680\(a1\)
    10000108:	3c010002 	lui	at,0x2
    1000010c:	6421e240 	daddiu	at,at,-7616
    10000110:	00a1282d 	daddu	a1,a1,at
    10000114:	3c050000 	lui	a1,0x0
    10000118:	00bc282d 	daddu	a1,a1,gp
    1000011c:	dca58058 	ld	a1,-32680\(a1\)
    10000120:	00b1282d 	daddu	a1,a1,s1
    10000124:	3c050000 	lui	a1,0x0
    10000128:	00bc282d 	daddu	a1,a1,gp
    1000012c:	dca58058 	ld	a1,-32680\(a1\)
    10000130:	64a5000c 	daddiu	a1,a1,12
    10000134:	00b1282d 	daddu	a1,a1,s1
    10000138:	3c050000 	lui	a1,0x0
    1000013c:	00bc282d 	daddu	a1,a1,gp
    10000140:	dca58058 	ld	a1,-32680\(a1\)
    10000144:	3c010002 	lui	at,0x2
    10000148:	6421e240 	daddiu	at,at,-7616
    1000014c:	00a1282d 	daddu	a1,a1,at
d39 9
a47 9
    1000015c:	dca58058 	ld	a1,-32680\(a1\)
    10000160:	dca50000 	ld	a1,0\(a1\)
    10000164:	3c050000 	lui	a1,0x0
    10000168:	00bc282d 	daddu	a1,a1,gp
    1000016c:	dca58058 	ld	a1,-32680\(a1\)
    10000170:	dca5000c 	ld	a1,12\(a1\)
    10000174:	3c050000 	lui	a1,0x0
    10000178:	00bc282d 	daddu	a1,a1,gp
    1000017c:	dca58058 	ld	a1,-32680\(a1\)
d49 31
a79 31
    10000184:	dca50000 	ld	a1,0\(a1\)
    10000188:	3c050000 	lui	a1,0x0
    1000018c:	00bc282d 	daddu	a1,a1,gp
    10000190:	dca58058 	ld	a1,-32680\(a1\)
    10000194:	00b1282d 	daddu	a1,a1,s1
    10000198:	dca5000c 	ld	a1,12\(a1\)
    1000019c:	3c010000 	lui	at,0x0
    100001a0:	003c082d 	daddu	at,at,gp
    100001a4:	dc218058 	ld	at,-32680\(at\)
    100001a8:	0025082d 	daddu	at,at,a1
    100001ac:	dc250022 	ld	a1,34\(at\)
    100001b0:	3c010000 	lui	at,0x0
    100001b4:	003c082d 	daddu	at,at,gp
    100001b8:	dc218058 	ld	at,-32680\(at\)
    100001bc:	0025082d 	daddu	at,at,a1
    100001c0:	fc250038 	sd	a1,56\(at\)
    100001c4:	3c010000 	lui	at,0x0
    100001c8:	003c082d 	daddu	at,at,gp
    100001cc:	dc218058 	ld	at,-32680\(at\)
    100001d0:	88250000 	lwl	a1,0\(at\)
    100001d4:	98250003 	lwr	a1,3\(at\)
    100001d8:	3c010000 	lui	at,0x0
    100001dc:	003c082d 	daddu	at,at,gp
    100001e0:	dc218058 	ld	at,-32680\(at\)
    100001e4:	6421000c 	daddiu	at,at,12
    100001e8:	88250000 	lwl	a1,0\(at\)
    100001ec:	98250003 	lwr	a1,3\(at\)
    100001f0:	3c010000 	lui	at,0x0
    100001f4:	003c082d 	daddu	at,at,gp
    100001f8:	dc218058 	ld	at,-32680\(at\)
    100001fc:	0031082d 	daddu	at,at,s1
d84 1
a84 1
    10000210:	dc218058 	ld	at,-32680\(at\)
d86 29
a114 29
    10000218:	0031082d 	daddu	at,at,s1
    1000021c:	88250000 	lwl	a1,0\(at\)
    10000220:	98250003 	lwr	a1,3\(at\)
    10000224:	3c010000 	lui	at,0x0
    10000228:	003c082d 	daddu	at,at,gp
    1000022c:	dc218058 	ld	at,-32680\(at\)
    10000230:	64210022 	daddiu	at,at,34
    10000234:	0025082d 	daddu	at,at,a1
    10000238:	88250000 	lwl	a1,0\(at\)
    1000023c:	98250003 	lwr	a1,3\(at\)
    10000240:	3c010000 	lui	at,0x0
    10000244:	003c082d 	daddu	at,at,gp
    10000248:	dc218058 	ld	at,-32680\(at\)
    1000024c:	64210038 	daddiu	at,at,56
    10000250:	0025082d 	daddu	at,at,a1
    10000254:	a8250000 	swl	a1,0\(at\)
    10000258:	b8250003 	swr	a1,3\(at\)
    1000025c:	df858020 	ld	a1,-32736\(gp\)
    10000260:	64a5071c 	daddiu	a1,a1,1820
    10000264:	df858020 	ld	a1,-32736\(gp\)
    10000268:	64a50728 	daddiu	a1,a1,1832
    1000026c:	df858028 	ld	a1,-32728\(gp\)
    10000270:	64a5e95c 	daddiu	a1,a1,-5796
    10000274:	df858020 	ld	a1,-32736\(gp\)
    10000278:	64a5071c 	daddiu	a1,a1,1820
    1000027c:	00b1282d 	daddu	a1,a1,s1
    10000280:	df858020 	ld	a1,-32736\(gp\)
    10000284:	64a50728 	daddiu	a1,a1,1832
    10000288:	00b1282d 	daddu	a1,a1,s1
d116 7
a122 7
    10000290:	64a5e95c 	daddiu	a1,a1,-5796
    10000294:	00b1282d 	daddu	a1,a1,s1
    10000298:	df858020 	ld	a1,-32736\(gp\)
    1000029c:	dca5071c 	ld	a1,1820\(a1\)
    100002a0:	df858020 	ld	a1,-32736\(gp\)
    100002a4:	dca50728 	ld	a1,1832\(a1\)
    100002a8:	df858020 	ld	a1,-32736\(gp\)
d124 2
a125 2
    100002b0:	dca5071c 	ld	a1,1820\(a1\)
    100002b4:	df858020 	ld	a1,-32736\(gp\)
d127 82
a208 82
    100002bc:	dca50728 	ld	a1,1832\(a1\)
    100002c0:	df818020 	ld	at,-32736\(gp\)
    100002c4:	0025082d 	daddu	at,at,a1
    100002c8:	dc25073e 	ld	a1,1854\(at\)
    100002cc:	df818020 	ld	at,-32736\(gp\)
    100002d0:	0025082d 	daddu	at,at,a1
    100002d4:	fc250754 	sd	a1,1876\(at\)
    100002d8:	df818020 	ld	at,-32736\(gp\)
    100002dc:	6421071c 	daddiu	at,at,1820
    100002e0:	88250000 	lwl	a1,0\(at\)
    100002e4:	98250003 	lwr	a1,3\(at\)
    100002e8:	df818020 	ld	at,-32736\(gp\)
    100002ec:	64210728 	daddiu	at,at,1832
    100002f0:	88250000 	lwl	a1,0\(at\)
    100002f4:	98250003 	lwr	a1,3\(at\)
    100002f8:	df818020 	ld	at,-32736\(gp\)
    100002fc:	6421071c 	daddiu	at,at,1820
    10000300:	0031082d 	daddu	at,at,s1
    10000304:	88250000 	lwl	a1,0\(at\)
    10000308:	98250003 	lwr	a1,3\(at\)
    1000030c:	df818020 	ld	at,-32736\(gp\)
    10000310:	64210728 	daddiu	at,at,1832
    10000314:	0031082d 	daddu	at,at,s1
    10000318:	88250000 	lwl	a1,0\(at\)
    1000031c:	98250003 	lwr	a1,3\(at\)
    10000320:	df818020 	ld	at,-32736\(gp\)
    10000324:	6421073e 	daddiu	at,at,1854
    10000328:	0025082d 	daddu	at,at,a1
    1000032c:	88250000 	lwl	a1,0\(at\)
    10000330:	98250003 	lwr	a1,3\(at\)
    10000334:	df818020 	ld	at,-32736\(gp\)
    10000338:	64210754 	daddiu	at,at,1876
    1000033c:	0025082d 	daddu	at,at,a1
    10000340:	a8250000 	swl	a1,0\(at\)
    10000344:	b8250003 	swr	a1,3\(at\)
    10000348:	3c050000 	lui	a1,0x0
    1000034c:	00bc282d 	daddu	a1,a1,gp
    10000350:	dca58048 	ld	a1,-32696\(a1\)
    10000354:	df858030 	ld	a1,-32720\(gp\)
    10000358:	64a500e0 	daddiu	a1,a1,224
    1000035c:	3c190000 	lui	t9,0x0
    10000360:	033cc82d 	daddu	t9,t9,gp
    10000364:	df398048 	ld	t9,-32696\(t9\)
    10000368:	df998030 	ld	t9,-32720\(gp\)
    1000036c:	673900e0 	daddiu	t9,t9,224
    10000370:	3c190000 	lui	t9,0x0
    10000374:	033cc82d 	daddu	t9,t9,gp
    10000378:	df398048 	ld	t9,-32696\(t9\)
    1000037c:	0320f809 	jalr	t9
    10000380:	00000000 	nop
    10000384:	df998030 	ld	t9,-32720\(gp\)
    10000388:	673900e0 	daddiu	t9,t9,224
    1000038c:	0320f809 	jalr	t9
    10000390:	00000000 	nop
    10000394:	3c050000 	lui	a1,0x0
    10000398:	00bc282d 	daddu	a1,a1,gp
    1000039c:	dca58060 	ld	a1,-32672\(a1\)
    100003a0:	3c050000 	lui	a1,0x0
    100003a4:	00bc282d 	daddu	a1,a1,gp
    100003a8:	dca58060 	ld	a1,-32672\(a1\)
    100003ac:	64a5000c 	daddiu	a1,a1,12
    100003b0:	3c050000 	lui	a1,0x0
    100003b4:	00bc282d 	daddu	a1,a1,gp
    100003b8:	dca58060 	ld	a1,-32672\(a1\)
    100003bc:	3c010002 	lui	at,0x2
    100003c0:	6421e240 	daddiu	at,at,-7616
    100003c4:	00a1282d 	daddu	a1,a1,at
    100003c8:	3c050000 	lui	a1,0x0
    100003cc:	00bc282d 	daddu	a1,a1,gp
    100003d0:	dca58060 	ld	a1,-32672\(a1\)
    100003d4:	00b1282d 	daddu	a1,a1,s1
    100003d8:	3c050000 	lui	a1,0x0
    100003dc:	00bc282d 	daddu	a1,a1,gp
    100003e0:	dca58060 	ld	a1,-32672\(a1\)
    100003e4:	64a5000c 	daddiu	a1,a1,12
    100003e8:	00b1282d 	daddu	a1,a1,s1
    100003ec:	3c050000 	lui	a1,0x0
    100003f0:	00bc282d 	daddu	a1,a1,gp
    100003f4:	dca58060 	ld	a1,-32672\(a1\)
    100003f8:	3c010002 	lui	at,0x2
    100003fc:	6421e240 	daddiu	at,at,-7616
    10000400:	00a1282d 	daddu	a1,a1,at
d212 9
a220 9
    10000410:	dca58060 	ld	a1,-32672\(a1\)
    10000414:	dca50000 	ld	a1,0\(a1\)
    10000418:	3c050000 	lui	a1,0x0
    1000041c:	00bc282d 	daddu	a1,a1,gp
    10000420:	dca58060 	ld	a1,-32672\(a1\)
    10000424:	dca5000c 	ld	a1,12\(a1\)
    10000428:	3c050000 	lui	a1,0x0
    1000042c:	00bc282d 	daddu	a1,a1,gp
    10000430:	dca58060 	ld	a1,-32672\(a1\)
d222 31
a252 31
    10000438:	dca50000 	ld	a1,0\(a1\)
    1000043c:	3c050000 	lui	a1,0x0
    10000440:	00bc282d 	daddu	a1,a1,gp
    10000444:	dca58060 	ld	a1,-32672\(a1\)
    10000448:	00b1282d 	daddu	a1,a1,s1
    1000044c:	dca5000c 	ld	a1,12\(a1\)
    10000450:	3c010000 	lui	at,0x0
    10000454:	003c082d 	daddu	at,at,gp
    10000458:	dc218060 	ld	at,-32672\(at\)
    1000045c:	0025082d 	daddu	at,at,a1
    10000460:	dc250022 	ld	a1,34\(at\)
    10000464:	3c010000 	lui	at,0x0
    10000468:	003c082d 	daddu	at,at,gp
    1000046c:	dc218060 	ld	at,-32672\(at\)
    10000470:	0025082d 	daddu	at,at,a1
    10000474:	fc250038 	sd	a1,56\(at\)
    10000478:	3c010000 	lui	at,0x0
    1000047c:	003c082d 	daddu	at,at,gp
    10000480:	dc218060 	ld	at,-32672\(at\)
    10000484:	88250000 	lwl	a1,0\(at\)
    10000488:	98250003 	lwr	a1,3\(at\)
    1000048c:	3c010000 	lui	at,0x0
    10000490:	003c082d 	daddu	at,at,gp
    10000494:	dc218060 	ld	at,-32672\(at\)
    10000498:	6421000c 	daddiu	at,at,12
    1000049c:	88250000 	lwl	a1,0\(at\)
    100004a0:	98250003 	lwr	a1,3\(at\)
    100004a4:	3c010000 	lui	at,0x0
    100004a8:	003c082d 	daddu	at,at,gp
    100004ac:	dc218060 	ld	at,-32672\(at\)
    100004b0:	0031082d 	daddu	at,at,s1
d257 1
a257 1
    100004c4:	dc218060 	ld	at,-32672\(at\)
d259 29
a287 29
    100004cc:	0031082d 	daddu	at,at,s1
    100004d0:	88250000 	lwl	a1,0\(at\)
    100004d4:	98250003 	lwr	a1,3\(at\)
    100004d8:	3c010000 	lui	at,0x0
    100004dc:	003c082d 	daddu	at,at,gp
    100004e0:	dc218060 	ld	at,-32672\(at\)
    100004e4:	64210022 	daddiu	at,at,34
    100004e8:	0025082d 	daddu	at,at,a1
    100004ec:	88250000 	lwl	a1,0\(at\)
    100004f0:	98250003 	lwr	a1,3\(at\)
    100004f4:	3c010000 	lui	at,0x0
    100004f8:	003c082d 	daddu	at,at,gp
    100004fc:	dc218060 	ld	at,-32672\(at\)
    10000500:	64210038 	daddiu	at,at,56
    10000504:	0025082d 	daddu	at,at,a1
    10000508:	a8250000 	swl	a1,0\(at\)
    1000050c:	b8250003 	swr	a1,3\(at\)
    10000510:	df858020 	ld	a1,-32736\(gp\)
    10000514:	64a50794 	daddiu	a1,a1,1940
    10000518:	df858020 	ld	a1,-32736\(gp\)
    1000051c:	64a507a0 	daddiu	a1,a1,1952
    10000520:	df858028 	ld	a1,-32728\(gp\)
    10000524:	64a5e9d4 	daddiu	a1,a1,-5676
    10000528:	df858020 	ld	a1,-32736\(gp\)
    1000052c:	64a50794 	daddiu	a1,a1,1940
    10000530:	00b1282d 	daddu	a1,a1,s1
    10000534:	df858020 	ld	a1,-32736\(gp\)
    10000538:	64a507a0 	daddiu	a1,a1,1952
    1000053c:	00b1282d 	daddu	a1,a1,s1
d289 7
a295 7
    10000544:	64a5e9d4 	daddiu	a1,a1,-5676
    10000548:	00b1282d 	daddu	a1,a1,s1
    1000054c:	df858020 	ld	a1,-32736\(gp\)
    10000550:	dca50794 	ld	a1,1940\(a1\)
    10000554:	df858020 	ld	a1,-32736\(gp\)
    10000558:	dca507a0 	ld	a1,1952\(a1\)
    1000055c:	df858020 	ld	a1,-32736\(gp\)
d297 2
a298 2
    10000564:	dca50794 	ld	a1,1940\(a1\)
    10000568:	df858020 	ld	a1,-32736\(gp\)
d300 76
a375 76
    10000570:	dca507a0 	ld	a1,1952\(a1\)
    10000574:	df818020 	ld	at,-32736\(gp\)
    10000578:	0025082d 	daddu	at,at,a1
    1000057c:	dc250794 	ld	a1,1940\(at\)
    10000580:	df818020 	ld	at,-32736\(gp\)
    10000584:	0025082d 	daddu	at,at,a1
    10000588:	fc2507cc 	sd	a1,1996\(at\)
    1000058c:	df818020 	ld	at,-32736\(gp\)
    10000590:	64210794 	daddiu	at,at,1940
    10000594:	88250000 	lwl	a1,0\(at\)
    10000598:	98250003 	lwr	a1,3\(at\)
    1000059c:	df818020 	ld	at,-32736\(gp\)
    100005a0:	642107a0 	daddiu	at,at,1952
    100005a4:	88250000 	lwl	a1,0\(at\)
    100005a8:	98250003 	lwr	a1,3\(at\)
    100005ac:	df818020 	ld	at,-32736\(gp\)
    100005b0:	64210794 	daddiu	at,at,1940
    100005b4:	0031082d 	daddu	at,at,s1
    100005b8:	88250000 	lwl	a1,0\(at\)
    100005bc:	98250003 	lwr	a1,3\(at\)
    100005c0:	df818020 	ld	at,-32736\(gp\)
    100005c4:	642107a0 	daddiu	at,at,1952
    100005c8:	0031082d 	daddu	at,at,s1
    100005cc:	88250000 	lwl	a1,0\(at\)
    100005d0:	98250003 	lwr	a1,3\(at\)
    100005d4:	df818020 	ld	at,-32736\(gp\)
    100005d8:	642107b6 	daddiu	at,at,1974
    100005dc:	0025082d 	daddu	at,at,a1
    100005e0:	88250000 	lwl	a1,0\(at\)
    100005e4:	98250003 	lwr	a1,3\(at\)
    100005e8:	df818020 	ld	at,-32736\(gp\)
    100005ec:	642107cc 	daddiu	at,at,1996
    100005f0:	0025082d 	daddu	at,at,a1
    100005f4:	a8250000 	swl	a1,0\(at\)
    100005f8:	b8250003 	swr	a1,3\(at\)
    100005fc:	3c050000 	lui	a1,0x0
    10000600:	00bc282d 	daddu	a1,a1,gp
    10000604:	dca58050 	ld	a1,-32688\(a1\)
    10000608:	df858030 	ld	a1,-32720\(gp\)
    1000060c:	64a506e0 	daddiu	a1,a1,1760
    10000610:	3c190000 	lui	t9,0x0
    10000614:	033cc82d 	daddu	t9,t9,gp
    10000618:	df398050 	ld	t9,-32688\(t9\)
    1000061c:	df998030 	ld	t9,-32720\(gp\)
    10000620:	673906e0 	daddiu	t9,t9,1760
    10000624:	3c190000 	lui	t9,0x0
    10000628:	033cc82d 	daddu	t9,t9,gp
    1000062c:	df398050 	ld	t9,-32688\(t9\)
    10000630:	0320f809 	jalr	t9
    10000634:	00000000 	nop
    10000638:	df998030 	ld	t9,-32720\(gp\)
    1000063c:	673906e0 	daddiu	t9,t9,1760
    10000640:	0320f809 	jalr	t9
    10000644:	00000000 	nop
    10000648:	3c050000 	lui	a1,0x0
    1000064c:	00bc282d 	daddu	a1,a1,gp
    10000650:	dca58058 	ld	a1,-32680\(a1\)
    10000654:	1000fea2 	b	100000e0 <fn>
    10000658:	00000000 	nop
    1000065c:	3c050000 	lui	a1,0x0
    10000660:	00bc282d 	daddu	a1,a1,gp
    10000664:	dca58060 	ld	a1,-32672\(a1\)
    10000668:	dca50000 	ld	a1,0\(a1\)
    1000066c:	1000001c 	b	100006e0 <fn2>
    10000670:	00000000 	nop
    10000674:	df858020 	ld	a1,-32736\(gp\)
    10000678:	64a5071c 	daddiu	a1,a1,1820
    1000067c:	1000fe98 	b	100000e0 <fn>
    10000680:	00000000 	nop
    10000684:	df858020 	ld	a1,-32736\(gp\)
    10000688:	64a507a0 	daddiu	a1,a1,1952
    1000068c:	10000014 	b	100006e0 <fn2>
    10000690:	00000000 	nop
    10000694:	df858028 	ld	a1,-32728\(gp\)
    10000698:	64a5e95c 	daddiu	a1,a1,-5796
    1000069c:	1000fe90 	b	100000e0 <fn>
d377 3
a379 3
    100006a4:	df858020 	ld	a1,-32736\(gp\)
    100006a8:	dca50794 	ld	a1,1940\(a1\)
    100006ac:	1000000c 	b	100006e0 <fn2>
d381 3
a383 3
    100006b4:	df858020 	ld	a1,-32736\(gp\)
    100006b8:	dca50728 	ld	a1,1832\(a1\)
    100006bc:	1000fe88 	b	100000e0 <fn>
d385 20
a404 5
    100006c4:	df818020 	ld	at,-32736\(gp\)
    100006c8:	0025082d 	daddu	at,at,a1
    100006cc:	dc2507b6 	ld	a1,1974\(at\)
    100006d0:	10000003 	b	100006e0 <fn2>
    100006d4:	00000000 	nop
d408 1
a408 1
00000000101006e0 <_fdata>:
d411 1
a411 1
000000001010071c <dg1>:
d414 1
a414 1
0000000010100758 <sp2>:
d417 1
a417 1
0000000010100794 <dg2>:
d421 3
a423 1
00000000101007d0 <_GLOBAL_OFFSET_TABLE_>:
d425 14
a438 9
    101007d8:	80000000 	.*
    101007dc:	00000000 	.*
    101007e0:	00000000 	.*
    101007e4:	10100000 	.*
    101007e8:	00000000 	.*
    101007ec:	10120000 	.*
    101007f0:	00000000 	.*
    101007f4:	10000000 	.*
    101007f8:	00000000 	.*
a439 7
    1010080c:	100000e0 	.*
    10100810:	00000000 	.*
    10100814:	100006e0 	.*
    10100818:	00000000 	.*
    1010081c:	1010071c 	.*
    10100820:	00000000 	.*
    10100824:	10100794 	.*
@


1.3.18.1
log
@bfd/
2012-08-09  Maciej W. Rozycki  <macro@@codesourcery.com>

	* elfxx-mips.c (LA25_LUI_MICROMIPS_1, LA25_LUI_MICROMIPS_2):
	Remove macros, folding them into...
	(LA25_LUI_MICROMIPS): ... this new macro.
	(LA25_J_MICROMIPS_1, LA25_J_MICROMIPS_2): Likewise into...
	(LA25_J_MICROMIPS): ... this new macro.
	(LA25_ADDIU_MICROMIPS_1, LA25_ADDIU_MICROMIPS_2): Likewise
	into...
	(LA25_ADDIU_MICROMIPS): ... this new macro.
	(bfd_put_micromips_32, bfd_get_micromips_32): New functions.
	(mips_elf_create_la25_stub): Use them.
	(check_br32_dslot, check_br32, check_relocated_bzc): Likewise.
	(_bfd_mips_elf_relax_section): Likewise.

gas/
	* config/tc-mips.c (NO_ISA_COP, COP_INSN): Remove macros.
	(is_opcode_valid): Remove coprocessor instruction exclusions.
	Replace OPCODE_IS_MEMBER with opcode_is_member.
	(is_opcode_valid_16): Replace OPCODE_IS_MEMBER with
	opcode_is_member.
	(macro): Remove coprocessor instruction exclusions.

gas/
	* gas/mips/mips.exp: Set has_newabi for all Linux targets.
	* gas/mips/cfi-n64-1.d: Adjust for targets that do not infer the
	ISA from the ABI.
	* gas/mips/elf-rel-got-n32.d: Likewise.
	* gas/mips/elf-rel-got-n64.d: Likewise.
	* gas/mips/elf-rel-xgot-n32.d: Likewise.
	* gas/mips/elf-rel-xgot-n64.d: Likewise.
	* gas/mips/elf-rel18.d: Likewise.
	* gas/mips/elf-rel28-n32.d: Likewise.
	* gas/mips/elf-rel28-n64.d: Likewise.
	* gas/mips/jal-newabi.d: Likewise.
	* gas/mips/ldstla-n64-shared.d: Likewise.
	* gas/mips/ldstla-n64-sym32.d: Likewise.
	* gas/mips/ldstla-n64.d: Likewise.
	* gas/mips/macro-warn-1-n32.d: Likewise.
	* gas/mips/macro-warn-2-n32.d: Likewise.
	* gas/mips/n32-consec.d: Likewise.

include/
2012-08-13  Richard Sandiford  <rdsandiford@@googlemail.com>
            Maciej W. Rozycki  <macro@@codesourcery.com>

	* mips.h (mips_opcode): Add the exclusions field.
	(OPCODE_IS_MEMBER): Remove macro.
	(cpu_is_member): New inline function.
	(opcode_is_member): Likewise.

ld/
	* emulparams/elf32bmip.sh: Make _gp hidden.
	* emulparams/elf32bmipn32-defs.sh: Likewise.
	* emulparams/elf32mipswindiss.sh: Likewise.
	* scripttempl/mips.sc: Likewise.

ld/
2012-08-28  Maciej W. Rozycki  <macro@@codesourcery.com>

	* ld-elf/export-class.sd: New test.
	* ld-elf/export-class.vd: New test.
	* ld-elf/export-class-def.s: New test source.
	* ld-elf/export-class-dep.s: New test source.
	* ld-elf/export-class-lib.s: New test source.
	* ld-elf/export-class-ref.s: New test source.
	* ld-elf/export-class-lib.ver: New test version script.
	* ld-elf/export-class.exp: New test script.
	* ld-arm/arm-export-class.rd: New test.
	* ld-arm/arm-export-class.xd: New test.
	* ld-arm/export-class.exp: New test script.
	* ld-i386/i386-export-class.rd: New test.
	* ld-i386/i386-export-class.xd: New test.
	* ld-i386/export-class.exp: New test script.
	* ld-mips-elf/mips-32-export-class.rd: New test.
	* ld-mips-elf/mips-32-export-class.xd: New test.
	* ld-mips-elf/mips-64-export-class.rd: New test.
	* ld-mips-elf/mips-64-export-class.xd: New test.
	* ld-mips-elf/export-class.exp: New test script.
	* ld-powerpc/powerpc-32-export-class.rd: New test.
	* ld-powerpc/powerpc-32-export-class.xd: New test.
	* ld-powerpc/powerpc-64-export-class.rd: New test.
	* ld-powerpc/powerpc-64-export-class.xd: New test.
	* ld-powerpc/export-class.exp: New test script.
	* ld-x86-64/x86-64-64-export-class.rd: New test.
	* ld-x86-64/x86-64-x32-export-class.rd: New test.
	* ld-x86-64/export-class.exp: New test script.

opcodes/
2012-08-14  Maciej W. Rozycki  <macro@@codesourcery.com>

	* mips-dis.c (print_insn_args): Add GET_OP and GET_OP_S local
	macros, use local variables for info struct member accesses,
	update the type of the variable used to hold the instruction
	word.
	(print_insn_mips, print_mips16_insn_arg): Likewise.
	(print_insn_mips16): Add GET_OP and GET_OP_S local macros, use
	local variables for info struct member accesses.
	(print_insn_micromips): Add GET_OP_S local macro.
	(_print_insn_mips): Update the type of the variable used to hold
	the instruction word.
@
text
@d2 1
a2 1
#as: -march=from-abi -EB -64 -KPIC -xgot
d4 1
a4 1
#ld:
d11 4
a14 4
00000000100000e8 <\.MIPS\.options>:
    100000e8:	01280000 	.*
    100000ec:	00000000 	.*
    100000f0:	92020022 	.*
d16 1
a16 1
    1000010c:	10018800 	.*
d19 29
a47 17
0000000010000110 <fn>:
    10000110:	3c050000 	lui	a1,0x0
    10000114:	00bc282d 	daddu	a1,a1,gp
    10000118:	dca58020 	ld	a1,-32736\(a1\)
    1000011c:	3c050000 	lui	a1,0x0
    10000120:	00bc282d 	daddu	a1,a1,gp
    10000124:	dca58020 	ld	a1,-32736\(a1\)
    10000128:	64a5000c 	daddiu	a1,a1,12
    1000012c:	3c050000 	lui	a1,0x0
    10000130:	00bc282d 	daddu	a1,a1,gp
    10000134:	dca58020 	ld	a1,-32736\(a1\)
    10000138:	3c010001 	lui	at,0x1
    1000013c:	3421e240 	ori	at,at,0xe240
    10000140:	00a1282d 	daddu	a1,a1,at
    10000144:	3c050000 	lui	a1,0x0
    10000148:	00bc282d 	daddu	a1,a1,gp
    1000014c:	dca58020 	ld	a1,-32736\(a1\)
d51 9
a59 9
    1000015c:	dca58020 	ld	a1,-32736\(a1\)
    10000160:	64a5000c 	daddiu	a1,a1,12
    10000164:	00b1282d 	daddu	a1,a1,s1
    10000168:	3c050000 	lui	a1,0x0
    1000016c:	00bc282d 	daddu	a1,a1,gp
    10000170:	dca58020 	ld	a1,-32736\(a1\)
    10000174:	3c010001 	lui	at,0x1
    10000178:	3421e240 	ori	at,at,0xe240
    1000017c:	00a1282d 	daddu	a1,a1,at
d61 31
a91 31
    10000184:	3c050000 	lui	a1,0x0
    10000188:	00bc282d 	daddu	a1,a1,gp
    1000018c:	dca58020 	ld	a1,-32736\(a1\)
    10000190:	dca50000 	ld	a1,0\(a1\)
    10000194:	3c050000 	lui	a1,0x0
    10000198:	00bc282d 	daddu	a1,a1,gp
    1000019c:	dca58020 	ld	a1,-32736\(a1\)
    100001a0:	dca5000c 	ld	a1,12\(a1\)
    100001a4:	3c050000 	lui	a1,0x0
    100001a8:	00bc282d 	daddu	a1,a1,gp
    100001ac:	dca58020 	ld	a1,-32736\(a1\)
    100001b0:	00b1282d 	daddu	a1,a1,s1
    100001b4:	dca50000 	ld	a1,0\(a1\)
    100001b8:	3c050000 	lui	a1,0x0
    100001bc:	00bc282d 	daddu	a1,a1,gp
    100001c0:	dca58020 	ld	a1,-32736\(a1\)
    100001c4:	00b1282d 	daddu	a1,a1,s1
    100001c8:	dca5000c 	ld	a1,12\(a1\)
    100001cc:	3c010000 	lui	at,0x0
    100001d0:	003c082d 	daddu	at,at,gp
    100001d4:	dc218020 	ld	at,-32736\(at\)
    100001d8:	0025082d 	daddu	at,at,a1
    100001dc:	dc250022 	ld	a1,34\(at\)
    100001e0:	3c010000 	lui	at,0x0
    100001e4:	003c082d 	daddu	at,at,gp
    100001e8:	dc218020 	ld	at,-32736\(at\)
    100001ec:	0025082d 	daddu	at,at,a1
    100001f0:	fc250038 	sd	a1,56\(at\)
    100001f4:	3c010000 	lui	at,0x0
    100001f8:	003c082d 	daddu	at,at,gp
    100001fc:	dc218020 	ld	at,-32736\(at\)
d96 1
a96 1
    10000210:	dc218020 	ld	at,-32736\(at\)
d98 29
a126 29
    10000218:	88250000 	lwl	a1,0\(at\)
    1000021c:	98250003 	lwr	a1,3\(at\)
    10000220:	3c010000 	lui	at,0x0
    10000224:	003c082d 	daddu	at,at,gp
    10000228:	dc218020 	ld	at,-32736\(at\)
    1000022c:	0031082d 	daddu	at,at,s1
    10000230:	88250000 	lwl	a1,0\(at\)
    10000234:	98250003 	lwr	a1,3\(at\)
    10000238:	3c010000 	lui	at,0x0
    1000023c:	003c082d 	daddu	at,at,gp
    10000240:	dc218020 	ld	at,-32736\(at\)
    10000244:	6421000c 	daddiu	at,at,12
    10000248:	0031082d 	daddu	at,at,s1
    1000024c:	88250000 	lwl	a1,0\(at\)
    10000250:	98250003 	lwr	a1,3\(at\)
    10000254:	3c010000 	lui	at,0x0
    10000258:	003c082d 	daddu	at,at,gp
    1000025c:	dc218020 	ld	at,-32736\(at\)
    10000260:	64210022 	daddiu	at,at,34
    10000264:	0025082d 	daddu	at,at,a1
    10000268:	88250000 	lwl	a1,0\(at\)
    1000026c:	98250003 	lwr	a1,3\(at\)
    10000270:	3c010000 	lui	at,0x0
    10000274:	003c082d 	daddu	at,at,gp
    10000278:	dc218020 	ld	at,-32736\(at\)
    1000027c:	64210038 	daddiu	at,at,56
    10000280:	0025082d 	daddu	at,at,a1
    10000284:	a8250000 	swl	a1,0\(at\)
    10000288:	b8250003 	swr	a1,3\(at\)
d128 7
a134 7
    10000290:	64a5075c 	daddiu	a1,a1,1884
    10000294:	df858028 	ld	a1,-32728\(gp\)
    10000298:	64a50768 	daddiu	a1,a1,1896
    1000029c:	df858030 	ld	a1,-32720\(gp\)
    100002a0:	64a5e99c 	daddiu	a1,a1,-5732
    100002a4:	df858028 	ld	a1,-32728\(gp\)
    100002a8:	64a5075c 	daddiu	a1,a1,1884
d136 2
a137 2
    100002b0:	df858028 	ld	a1,-32728\(gp\)
    100002b4:	64a50768 	daddiu	a1,a1,1896
d139 82
a220 82
    100002bc:	df858030 	ld	a1,-32720\(gp\)
    100002c0:	64a5e99c 	daddiu	a1,a1,-5732
    100002c4:	00b1282d 	daddu	a1,a1,s1
    100002c8:	df858028 	ld	a1,-32728\(gp\)
    100002cc:	dca5075c 	ld	a1,1884\(a1\)
    100002d0:	df858028 	ld	a1,-32728\(gp\)
    100002d4:	dca50768 	ld	a1,1896\(a1\)
    100002d8:	df858028 	ld	a1,-32728\(gp\)
    100002dc:	00b1282d 	daddu	a1,a1,s1
    100002e0:	dca5075c 	ld	a1,1884\(a1\)
    100002e4:	df858028 	ld	a1,-32728\(gp\)
    100002e8:	00b1282d 	daddu	a1,a1,s1
    100002ec:	dca50768 	ld	a1,1896\(a1\)
    100002f0:	df818028 	ld	at,-32728\(gp\)
    100002f4:	0025082d 	daddu	at,at,a1
    100002f8:	dc25077e 	ld	a1,1918\(at\)
    100002fc:	df818028 	ld	at,-32728\(gp\)
    10000300:	0025082d 	daddu	at,at,a1
    10000304:	fc250794 	sd	a1,1940\(at\)
    10000308:	df818028 	ld	at,-32728\(gp\)
    1000030c:	6421075c 	daddiu	at,at,1884
    10000310:	88250000 	lwl	a1,0\(at\)
    10000314:	98250003 	lwr	a1,3\(at\)
    10000318:	df818028 	ld	at,-32728\(gp\)
    1000031c:	64210768 	daddiu	at,at,1896
    10000320:	88250000 	lwl	a1,0\(at\)
    10000324:	98250003 	lwr	a1,3\(at\)
    10000328:	df818028 	ld	at,-32728\(gp\)
    1000032c:	6421075c 	daddiu	at,at,1884
    10000330:	0031082d 	daddu	at,at,s1
    10000334:	88250000 	lwl	a1,0\(at\)
    10000338:	98250003 	lwr	a1,3\(at\)
    1000033c:	df818028 	ld	at,-32728\(gp\)
    10000340:	64210768 	daddiu	at,at,1896
    10000344:	0031082d 	daddu	at,at,s1
    10000348:	88250000 	lwl	a1,0\(at\)
    1000034c:	98250003 	lwr	a1,3\(at\)
    10000350:	df818028 	ld	at,-32728\(gp\)
    10000354:	6421077e 	daddiu	at,at,1918
    10000358:	0025082d 	daddu	at,at,a1
    1000035c:	88250000 	lwl	a1,0\(at\)
    10000360:	98250003 	lwr	a1,3\(at\)
    10000364:	df818028 	ld	at,-32728\(gp\)
    10000368:	64210794 	daddiu	at,at,1940
    1000036c:	0025082d 	daddu	at,at,a1
    10000370:	a8250000 	swl	a1,0\(at\)
    10000374:	b8250003 	swr	a1,3\(at\)
    10000378:	3c050000 	lui	a1,0x0
    1000037c:	00bc282d 	daddu	a1,a1,gp
    10000380:	dca58038 	ld	a1,-32712\(a1\)
    10000384:	df858040 	ld	a1,-32704\(gp\)
    10000388:	64a50110 	daddiu	a1,a1,272
    1000038c:	3c190000 	lui	t9,0x0
    10000390:	033cc82d 	daddu	t9,t9,gp
    10000394:	df398038 	ld	t9,-32712\(t9\)
    10000398:	df998040 	ld	t9,-32704\(gp\)
    1000039c:	67390110 	daddiu	t9,t9,272
    100003a0:	3c190000 	lui	t9,0x0
    100003a4:	033cc82d 	daddu	t9,t9,gp
    100003a8:	df398038 	ld	t9,-32712\(t9\)
    100003ac:	0411ff58 	bal	10000110 <fn>
    100003b0:	00000000 	nop
    100003b4:	df998040 	ld	t9,-32704\(gp\)
    100003b8:	67390110 	daddiu	t9,t9,272
    100003bc:	0411ff54 	bal	10000110 <fn>
    100003c0:	00000000 	nop
    100003c4:	3c050000 	lui	a1,0x0
    100003c8:	00bc282d 	daddu	a1,a1,gp
    100003cc:	dca58048 	ld	a1,-32696\(a1\)
    100003d0:	3c050000 	lui	a1,0x0
    100003d4:	00bc282d 	daddu	a1,a1,gp
    100003d8:	dca58048 	ld	a1,-32696\(a1\)
    100003dc:	64a5000c 	daddiu	a1,a1,12
    100003e0:	3c050000 	lui	a1,0x0
    100003e4:	00bc282d 	daddu	a1,a1,gp
    100003e8:	dca58048 	ld	a1,-32696\(a1\)
    100003ec:	3c010001 	lui	at,0x1
    100003f0:	3421e240 	ori	at,at,0xe240
    100003f4:	00a1282d 	daddu	a1,a1,at
    100003f8:	3c050000 	lui	a1,0x0
    100003fc:	00bc282d 	daddu	a1,a1,gp
    10000400:	dca58048 	ld	a1,-32696\(a1\)
d224 9
a232 9
    10000410:	dca58048 	ld	a1,-32696\(a1\)
    10000414:	64a5000c 	daddiu	a1,a1,12
    10000418:	00b1282d 	daddu	a1,a1,s1
    1000041c:	3c050000 	lui	a1,0x0
    10000420:	00bc282d 	daddu	a1,a1,gp
    10000424:	dca58048 	ld	a1,-32696\(a1\)
    10000428:	3c010001 	lui	at,0x1
    1000042c:	3421e240 	ori	at,at,0xe240
    10000430:	00a1282d 	daddu	a1,a1,at
d234 31
a264 31
    10000438:	3c050000 	lui	a1,0x0
    1000043c:	00bc282d 	daddu	a1,a1,gp
    10000440:	dca58048 	ld	a1,-32696\(a1\)
    10000444:	dca50000 	ld	a1,0\(a1\)
    10000448:	3c050000 	lui	a1,0x0
    1000044c:	00bc282d 	daddu	a1,a1,gp
    10000450:	dca58048 	ld	a1,-32696\(a1\)
    10000454:	dca5000c 	ld	a1,12\(a1\)
    10000458:	3c050000 	lui	a1,0x0
    1000045c:	00bc282d 	daddu	a1,a1,gp
    10000460:	dca58048 	ld	a1,-32696\(a1\)
    10000464:	00b1282d 	daddu	a1,a1,s1
    10000468:	dca50000 	ld	a1,0\(a1\)
    1000046c:	3c050000 	lui	a1,0x0
    10000470:	00bc282d 	daddu	a1,a1,gp
    10000474:	dca58048 	ld	a1,-32696\(a1\)
    10000478:	00b1282d 	daddu	a1,a1,s1
    1000047c:	dca5000c 	ld	a1,12\(a1\)
    10000480:	3c010000 	lui	at,0x0
    10000484:	003c082d 	daddu	at,at,gp
    10000488:	dc218048 	ld	at,-32696\(at\)
    1000048c:	0025082d 	daddu	at,at,a1
    10000490:	dc250022 	ld	a1,34\(at\)
    10000494:	3c010000 	lui	at,0x0
    10000498:	003c082d 	daddu	at,at,gp
    1000049c:	dc218048 	ld	at,-32696\(at\)
    100004a0:	0025082d 	daddu	at,at,a1
    100004a4:	fc250038 	sd	a1,56\(at\)
    100004a8:	3c010000 	lui	at,0x0
    100004ac:	003c082d 	daddu	at,at,gp
    100004b0:	dc218048 	ld	at,-32696\(at\)
d269 1
a269 1
    100004c4:	dc218048 	ld	at,-32696\(at\)
d271 29
a299 29
    100004cc:	88250000 	lwl	a1,0\(at\)
    100004d0:	98250003 	lwr	a1,3\(at\)
    100004d4:	3c010000 	lui	at,0x0
    100004d8:	003c082d 	daddu	at,at,gp
    100004dc:	dc218048 	ld	at,-32696\(at\)
    100004e0:	0031082d 	daddu	at,at,s1
    100004e4:	88250000 	lwl	a1,0\(at\)
    100004e8:	98250003 	lwr	a1,3\(at\)
    100004ec:	3c010000 	lui	at,0x0
    100004f0:	003c082d 	daddu	at,at,gp
    100004f4:	dc218048 	ld	at,-32696\(at\)
    100004f8:	6421000c 	daddiu	at,at,12
    100004fc:	0031082d 	daddu	at,at,s1
    10000500:	88250000 	lwl	a1,0\(at\)
    10000504:	98250003 	lwr	a1,3\(at\)
    10000508:	3c010000 	lui	at,0x0
    1000050c:	003c082d 	daddu	at,at,gp
    10000510:	dc218048 	ld	at,-32696\(at\)
    10000514:	64210022 	daddiu	at,at,34
    10000518:	0025082d 	daddu	at,at,a1
    1000051c:	88250000 	lwl	a1,0\(at\)
    10000520:	98250003 	lwr	a1,3\(at\)
    10000524:	3c010000 	lui	at,0x0
    10000528:	003c082d 	daddu	at,at,gp
    1000052c:	dc218048 	ld	at,-32696\(at\)
    10000530:	64210038 	daddiu	at,at,56
    10000534:	0025082d 	daddu	at,at,a1
    10000538:	a8250000 	swl	a1,0\(at\)
    1000053c:	b8250003 	swr	a1,3\(at\)
d301 7
a307 7
    10000544:	64a507d4 	daddiu	a1,a1,2004
    10000548:	df858028 	ld	a1,-32728\(gp\)
    1000054c:	64a507e0 	daddiu	a1,a1,2016
    10000550:	df858030 	ld	a1,-32720\(gp\)
    10000554:	64a5ea14 	daddiu	a1,a1,-5612
    10000558:	df858028 	ld	a1,-32728\(gp\)
    1000055c:	64a507d4 	daddiu	a1,a1,2004
d309 2
a310 2
    10000564:	df858028 	ld	a1,-32728\(gp\)
    10000568:	64a507e0 	daddiu	a1,a1,2016
d312 76
a387 76
    10000570:	df858030 	ld	a1,-32720\(gp\)
    10000574:	64a5ea14 	daddiu	a1,a1,-5612
    10000578:	00b1282d 	daddu	a1,a1,s1
    1000057c:	df858028 	ld	a1,-32728\(gp\)
    10000580:	dca507d4 	ld	a1,2004\(a1\)
    10000584:	df858028 	ld	a1,-32728\(gp\)
    10000588:	dca507e0 	ld	a1,2016\(a1\)
    1000058c:	df858028 	ld	a1,-32728\(gp\)
    10000590:	00b1282d 	daddu	a1,a1,s1
    10000594:	dca507d4 	ld	a1,2004\(a1\)
    10000598:	df858028 	ld	a1,-32728\(gp\)
    1000059c:	00b1282d 	daddu	a1,a1,s1
    100005a0:	dca507e0 	ld	a1,2016\(a1\)
    100005a4:	df818028 	ld	at,-32728\(gp\)
    100005a8:	0025082d 	daddu	at,at,a1
    100005ac:	dc2507f6 	ld	a1,2038\(at\)
    100005b0:	df818028 	ld	at,-32728\(gp\)
    100005b4:	0025082d 	daddu	at,at,a1
    100005b8:	fc25080c 	sd	a1,2060\(at\)
    100005bc:	df818028 	ld	at,-32728\(gp\)
    100005c0:	642107d4 	daddiu	at,at,2004
    100005c4:	88250000 	lwl	a1,0\(at\)
    100005c8:	98250003 	lwr	a1,3\(at\)
    100005cc:	df818028 	ld	at,-32728\(gp\)
    100005d0:	642107e0 	daddiu	at,at,2016
    100005d4:	88250000 	lwl	a1,0\(at\)
    100005d8:	98250003 	lwr	a1,3\(at\)
    100005dc:	df818028 	ld	at,-32728\(gp\)
    100005e0:	642107d4 	daddiu	at,at,2004
    100005e4:	0031082d 	daddu	at,at,s1
    100005e8:	88250000 	lwl	a1,0\(at\)
    100005ec:	98250003 	lwr	a1,3\(at\)
    100005f0:	df818028 	ld	at,-32728\(gp\)
    100005f4:	642107e0 	daddiu	at,at,2016
    100005f8:	0031082d 	daddu	at,at,s1
    100005fc:	88250000 	lwl	a1,0\(at\)
    10000600:	98250003 	lwr	a1,3\(at\)
    10000604:	df818028 	ld	at,-32728\(gp\)
    10000608:	642107f6 	daddiu	at,at,2038
    1000060c:	0025082d 	daddu	at,at,a1
    10000610:	88250000 	lwl	a1,0\(at\)
    10000614:	98250003 	lwr	a1,3\(at\)
    10000618:	df818028 	ld	at,-32728\(gp\)
    1000061c:	6421080c 	daddiu	at,at,2060
    10000620:	0025082d 	daddu	at,at,a1
    10000624:	a8250000 	swl	a1,0\(at\)
    10000628:	b8250003 	swr	a1,3\(at\)
    1000062c:	3c050000 	lui	a1,0x0
    10000630:	00bc282d 	daddu	a1,a1,gp
    10000634:	dca58050 	ld	a1,-32688\(a1\)
    10000638:	df858040 	ld	a1,-32704\(gp\)
    1000063c:	64a50710 	daddiu	a1,a1,1808
    10000640:	3c190000 	lui	t9,0x0
    10000644:	033cc82d 	daddu	t9,t9,gp
    10000648:	df398050 	ld	t9,-32688\(t9\)
    1000064c:	df998040 	ld	t9,-32704\(gp\)
    10000650:	67390710 	daddiu	t9,t9,1808
    10000654:	3c190000 	lui	t9,0x0
    10000658:	033cc82d 	daddu	t9,t9,gp
    1000065c:	df398050 	ld	t9,-32688\(t9\)
    10000660:	0411002b 	bal	10000710 <fn2>
    10000664:	00000000 	nop
    10000668:	df998040 	ld	t9,-32704\(gp\)
    1000066c:	67390710 	daddiu	t9,t9,1808
    10000670:	04110027 	bal	10000710 <fn2>
    10000674:	00000000 	nop
    10000678:	3c050000 	lui	a1,0x0
    1000067c:	00bc282d 	daddu	a1,a1,gp
    10000680:	dca58020 	ld	a1,-32736\(a1\)
    10000684:	1000fea2 	b	10000110 <fn>
    10000688:	00000000 	nop
    1000068c:	3c050000 	lui	a1,0x0
    10000690:	00bc282d 	daddu	a1,a1,gp
    10000694:	dca58048 	ld	a1,-32696\(a1\)
    10000698:	dca50000 	ld	a1,0\(a1\)
    1000069c:	1000001c 	b	10000710 <fn2>
d389 3
a391 3
    100006a4:	df858028 	ld	a1,-32728\(gp\)
    100006a8:	64a5075c 	daddiu	a1,a1,1884
    100006ac:	1000fe98 	b	10000110 <fn>
d393 3
a395 3
    100006b4:	df858028 	ld	a1,-32728\(gp\)
    100006b8:	64a507e0 	daddiu	a1,a1,2016
    100006bc:	10000014 	b	10000710 <fn2>
d397 5
a401 20
    100006c4:	df858030 	ld	a1,-32720\(gp\)
    100006c8:	64a5e99c 	daddiu	a1,a1,-5732
    100006cc:	1000fe90 	b	10000110 <fn>
    100006d0:	00000000 	nop
    100006d4:	df858028 	ld	a1,-32728\(gp\)
    100006d8:	dca507d4 	ld	a1,2004\(a1\)
    100006dc:	1000000c 	b	10000710 <fn2>
    100006e0:	00000000 	nop
    100006e4:	df858028 	ld	a1,-32728\(gp\)
    100006e8:	dca50768 	ld	a1,1896\(a1\)
    100006ec:	1000fe88 	b	10000110 <fn>
    100006f0:	00000000 	nop
    100006f4:	df818028 	ld	at,-32728\(gp\)
    100006f8:	0025082d 	daddu	at,at,a1
    100006fc:	dc2507f6 	ld	a1,2038\(at\)
    10000700:	10000003 	b	10000710 <fn2>
    10000704:	00000000 	nop
	\.\.\.

0000000010000710 <fn2>:
d405 1
a405 1
0000000010010720 <_fdata>:
d408 1
a408 1
000000001001075c <dg1>:
d411 1
a411 1
0000000010010798 <sp2>:
d414 1
a414 1
00000000100107d4 <dg2>:
d418 1
a418 3
0000000010010810 <_GLOBAL_OFFSET_TABLE_>:
	\.\.\.
    10010818:	80000000 	.*
d420 9
a428 14
    10010824:	1001075c 	.*
    10010828:	00000000 	.*
    1001082c:	10010000 	.*
    10010830:	00000000 	.*
    10010834:	10030000 	.*
    10010838:	00000000 	.*
    1001083c:	10000110 	.*
    10010840:	00000000 	.*
    10010844:	10000000 	.*
    10010848:	00000000 	.*
    1001084c:	100107d4 	.*
    10010850:	00000000 	.*
    10010854:	10000710 	.*
    10010858:	00000000 	.*
d430 7
@


1.2
log
@	* ld-mips-elf/elf-rel-got-n32.d, ld-mips-elf/elf-rel-got-n64-linux.d,
	ld-mips-elf/elf-rel-got-n64.d, ld-mips-elf/elf-rel-xgot-n32.d,
	ld-mips-elf/elf-rel-xgot-n64-linux.d, ld-mips-elf/elf-rel-xgot-n64.d,
	ld-mips-elf/jalbal.d: Force big-endian.
	* ld-mips-elf/multi-got-1.d: Make more flexible.
	* ld-mips-elf/rel32-n32.d, ld-mips-elf/rel32-o32.d,
	ld-mips-elf/rel64.d: Update offsets.
@
text
@d420 2
a421 1
    101007dc:	80000000 	.*
@


1.1
log
@* ld-mips-elf/elf-rel-got-n32.d,
ld-mips-elf/elf-rel-got-n64.d, ld-mips-elf/elf-rel-xgot-n32.d,
ld-mips-elf/elf-rel-xgot-n64.d: New.
* ld-mips-elf/mips-elf.exp (hasn32): Define as condition for
new tests to run.
@
text
@d2 1
a2 1
#as: -64 -KPIC -xgot
@

