head	1.5;
access;
symbols
	binutils-2_24-branch:1.5.0.4
	binutils-2_24-branchpoint:1.5
	binutils-2_21_1:1.4
	binutils-2_23_2:1.5
	binutils-2_23_1:1.5
	binutils-2_23:1.5
	binutils-2_23-branch:1.5.0.2
	binutils-2_23-branchpoint:1.5
	binutils-2_22_branch:1.4.0.16
	binutils-2_22:1.4
	binutils-2_22-branch:1.4.0.14
	binutils-2_22-branchpoint:1.4
	binutils-2_21:1.4
	binutils-2_21-branch:1.4.0.12
	binutils-2_21-branchpoint:1.4
	binutils-2_20_1:1.4
	binutils-2_20:1.4
	binutils-arc-20081103-branch:1.4.0.10
	binutils-arc-20081103-branchpoint:1.4
	binutils-2_20-branch:1.4.0.8
	binutils-2_20-branchpoint:1.4
	dje-cgen-play1-branch:1.4.0.6
	dje-cgen-play1-branchpoint:1.4
	arc-20081103-branch:1.4.0.4
	arc-20081103-branchpoint:1.4
	binutils-2_19_1:1.4
	binutils-2_19:1.4
	binutils-2_19-branch:1.4.0.2
	binutils-2_19-branchpoint:1.4
	binutils-2_18:1.3
	binutils-2_18-branch:1.3.0.18
	binutils-2_18-branchpoint:1.3
	binutils-csl-coldfire-4_1-32:1.3
	binutils-csl-sourcerygxx-4_1-32:1.3
	binutils-csl-innovasic-fido-3_4_4-33:1.3
	binutils-csl-sourcerygxx-3_4_4-32:1.3
	binutils-csl-coldfire-4_1-30:1.3
	binutils-csl-sourcerygxx-4_1-30:1.3
	binutils-csl-coldfire-4_1-28:1.3
	binutils-csl-sourcerygxx-4_1-29:1.3
	binutils-csl-sourcerygxx-4_1-28:1.3
	binutils-csl-arm-2006q3-27:1.3
	binutils-csl-sourcerygxx-4_1-27:1.3
	binutils-csl-arm-2006q3-26:1.3
	binutils-csl-sourcerygxx-4_1-26:1.3
	binutils-csl-sourcerygxx-4_1-25:1.3
	binutils-csl-sourcerygxx-4_1-24:1.3
	binutils-csl-sourcerygxx-4_1-23:1.3
	binutils-csl-sourcerygxx-4_1-21:1.3
	binutils-csl-arm-2006q3-21:1.3
	binutils-csl-sourcerygxx-4_1-22:1.3
	binutils-csl-palmsource-arm-prelinker-1_0-1:1.3
	binutils-csl-sourcerygxx-4_1-20:1.3
	binutils-csl-arm-2006q3-19:1.3
	binutils-csl-sourcerygxx-4_1-19:1.3
	binutils-csl-sourcerygxx-4_1-18:1.3
	binutils-csl-renesas-4_1-9:1.3
	binutils-csl-sourcerygxx-3_4_4-25:1.3
	binutils-csl-renesas-4_1-8:1.3
	binutils-csl-renesas-4_1-7:1.3
	binutils-csl-renesas-4_1-6:1.3
	binutils-csl-sourcerygxx-4_1-17:1.3
	binutils-csl-sourcerygxx-4_1-14:1.3
	binutils-csl-sourcerygxx-4_1-15:1.3
	binutils-csl-sourcerygxx-4_1-13:1.3
	binutils-2_17:1.3
	binutils-csl-sourcerygxx-4_1-12:1.3
	binutils-csl-sourcerygxx-3_4_4-21:1.3
	binutils-csl-wrs-linux-3_4_4-24:1.3
	binutils-csl-wrs-linux-3_4_4-23:1.3
	binutils-csl-sourcerygxx-4_1-9:1.3
	binutils-csl-sourcerygxx-4_1-8:1.3
	binutils-csl-sourcerygxx-4_1-7:1.3
	binutils-csl-arm-2006q1-6:1.3
	binutils-csl-sourcerygxx-4_1-6:1.3
	binutils-csl-wrs-linux-3_4_4-22:1.3
	binutils-csl-coldfire-4_1-11:1.3
	binutils-csl-sourcerygxx-3_4_4-19:1.3
	binutils-csl-coldfire-4_1-10:1.3
	binutils-csl-sourcerygxx-4_1-5:1.3
	binutils-csl-sourcerygxx-4_1-4:1.3
	binutils-csl-wrs-linux-3_4_4-21:1.3
	binutils-csl-morpho-4_1-4:1.3
	binutils-csl-sourcerygxx-3_4_4-17:1.3
	binutils-csl-wrs-linux-3_4_4-20:1.3
	binutils-2_17-branch:1.3.0.16
	binutils-2_17-branchpoint:1.3
	binutils-csl-2_17-branch:1.3.0.14
	binutils-csl-2_17-branchpoint:1.3
	binutils-csl-gxxpro-3_4-branch:1.3.0.12
	binutils-csl-gxxpro-3_4-branchpoint:1.3
	binutils-2_16_1:1.3
	binutils-csl-arm-2005q1b:1.3
	binutils-2_16:1.3
	binutils-csl-arm-2005q1a:1.3
	binutils-csl-arm-2005q1-branch:1.3.0.10
	binutils-csl-arm-2005q1-branchpoint:1.3
	binutils-2_16-branch:1.3.0.8
	binutils-2_16-branchpoint:1.3
	csl-arm-2004-q3d:1.3
	csl-arm-2004-q3:1.3
	binutils-2_15:1.3
	binutils-2_15-branchpoint:1.3
	csl-arm-2004-q1a:1.3
	csl-arm-2004-q1:1.3
	binutils-2_15-branch:1.3.0.6
	cagney_bfdfile-20040213-branch:1.3.0.4
	cagney_bfdfile-20040213-branchpoint:1.3
	cagney_bigcore-20040122-branch:1.3.0.2
	cagney_bigcore-20040122-branchpoint:1.3
	csl-arm-2003-q4:1.3
	binutils-2_14:1.2
	binutils-2_14-branch:1.2.0.2
	binutils-2_14-branchpoint:1.2
	binutils-2_13_2_1:1.1
	binutils-2_13_2:1.1
	binutils-2_13_1:1.1
	binutils-2_13:1.1
	binutils-2_13-branchpoint:1.1
	binutils-2_13-branch:1.1.0.6
	binutils-2_12_1:1.1
	binutils-2_12:1.1
	binutils-2_12-branch:1.1.0.4
	binutils-2_12-branchpoint:1.1
	cygnus_cvs_20020108_pre:1.1
	binutils-2_11_2:1.1
	binutils-2_11_1:1.1
	binutils-2_11:1.1
	x86_64versiong3:1.1
	binutils-2_11-branch:1.1.0.2
	binutils_latest_snapshot:1.5;
locks; strict;
comment	@# @;


1.5
date	2012.05.15.12.55.39;	author nickc;	state Exp;
branches;
next	1.4;

1.4
date	2008.02.22.15.33.31;	author nickc;	state Exp;
branches;
next	1.3;

1.3
date	2003.10.27.10.01.51;	author ciceron;	state Exp;
branches;
next	1.2;

1.2
date	2002.08.13.22.45.22;	author ciceron;	state Exp;
branches;
next	1.1;

1.1
date	2001.01.11.19.48.41;	author ciceron;	state Exp;
branches;
next	;


desc
@@


1.5
log
@	* config/tc-m68hc11.c: Add S12X and XGATE co-processor support.
	Add option to offset S12 addresses into XGATE memory space.
	Tweak target flags to match other tools. (i.e. -m m68hc11).
	* doc/as.texinfo: Mention new options.
	* doc/c-m68hc11.texi: Document new options.
	* NEWS: Mention new support.

	* archures.c: Add bfd_arch_m9s12x and bfd_arch_m9s12xg.
	* config.bfd: Likewise.
	* cpu-m9s12x.c: New.
	* cpu-m9s12xg.c: New.
	* elf32-m68hc12.c: Add S12X and XGATE co-processor support.
	Add option to offset S12 addresses into XGATE memory space.
	Fix carry bug in IMM16 (IMM8 low/high) relocate.
	* Makefile.am (ALL_MACHINES): Add cpu-m9s12x and cpu-m9s12xg.
	(ALL_MACHINES_CFILES): Likewise.
	* reloc.c: Add S12X relocs.
	* Makefile.in: Regenerate.
	* bfd-in2.h: Regenerate.
	* libbfd.h: Regenerate.

	* gas/m68hc11/insns9s12x.s: New
	* gas/m68hc11/insns9s12x.d: New
	* gas/m68hc11/hexprefix.s: New
	* gas/m68hc11/hexprefix.d: New
	* gas/m68hc11/9s12x-exg-sex-tfr.s: New
	* gas/m68hc11/9s12x-exg-sex-tfr.d: New
	* gas/m68hc11/insns9s12xg.s: New
	* gas/m68hc11/insns9s12xg.d: New
	* gas/m68hc11/9s12x-mov.s: New
	* gas/m68hc11/9s12x-mov.d: New
	* gas/m68hc11/m68hc11.exp: Updated
	* gas/m68hc11/*.d: Brought in line with changed objdump output.
	* gas/all/gas.exp: XFAIL all hc11/12 targets for redef2,3.
	* gas/elf/elf.exp: XFAIL all hc11/12 targets for redef.
	* gas/elf/dwarf2-1.d: Skip for hc11/12 targets.
	* gas/elf/dwarf2-2.d: Likewise.

	* ld-m68hc11/xgate-link.s: New.
	* ld-m68hc11/xgate-link.d: New.
	* ld-m68hc11/xgate-offset.s: New.
	* ld-m68hc11/xgate-offset.d: New.
	* ld-m68hc11/xgate1.s: New.
	* ld-m68hc11/xgate1.d: New.
	* ld-m68hc11/xgate2.s: New.
	* ld-m68hc11/m68hc11.exp: Updated.
	* ld-m68hc11/*.d: Brought in line with changed objdump output.
	* ld-gc/gc.exp: Update CFLAGS for m68hc11.
	* ld-plugin/plugin.exp: Likewise.
	* ld-srec/srec.exp: XFAIL for m68hc11 and m68hc12.

	* configure.in: Add S12X and XGATE co-processor support to m68hc11
	target.
	* disassemble.c: Likewise.
	* configure: Regenerate.
	* m68hc11-dis.c: Make objdump output more consistent, use hex
	instead of decimal and use 0x prefix for hex.
	* m68hc11-opc.c: Add S12X and XGATE opcodes.
	* dis-asm.h (print_insn_m9s12x): Prototype.
	(print_insn_m9s12xg): Prototype.

	* m68hc11.h (R_M68HC12_16B, R_M68HC12_PCREL_9, R_M68HC12_PCREL_10)
	R_M68HC12_HI8XG, R_M68HC12_LO8XG): New relocations.
	(E_M68HC11_XGATE_RAMOFFSET): Define.

	* m68hc11.h: Add XGate definitions.
	(struct m68hc11_opcode): Add xg_mask field.
@
text
@#objdump: -S
#as: -m68hc11 -gdwarf2
#name: Dwarf2 test on lbranch.s
#source: lbranch.s

# Test handling of basic instructions.

.*: +file format elf32\-m68hc11

Disassembly of section .text:

0+00 <_rcall>:
#...
	.globl	_rcall
	.globl _start
_start:
_rcall:
	ldaa	#0x10		;86 10
   0:	86 10       	ldaa	#0x10
	jbra	Lend		; Must be switched to a jmp
   2:	7e 00 00    	jmp	0x0 <_rcall>
	jbsr	toto		; -> to a jsr
   5:	bd 00 00    	jsr	0x0 <_rcall>
	jbne	toto		; -> to a beq\+jmp
   8:	27 03       	beq	0xd <_rcall\+0xd>
   a:	7e 00 00    	jmp	0x0 <_rcall>
	jbeq	toto		; -> to a bne\+jmp
   d:	26 03       	bne	0x12 <_rcall\+0x12>
   f:	7e 00 00    	jmp	0x0 <_rcall>
	jbcs	toto		; -> to a bcc\+jmp
  12:	24 03       	bcc	0x17 <_rcall\+0x17>
  14:	7e 00 00    	jmp	0x0 <_rcall>
	jbcc	toto		; -> to a bcs\+jmp
  17:	25 03       	bcs	0x1c <_rcall\+0x1c>
  19:	7e 00 00    	jmp	0x0 <_rcall>
	xgdx
  1c:	8f          	xgdx
	xgdx
  1d:	8f          	xgdx
	beq	bidule		; -> to a bne\+jmp
  1e:	26 03       	bne	0x23 <_rcall\+0x23>
  20:	7e 00 00    	jmp	0x0 <_rcall>
	bcs	bidule		; -> to a bcc\+jmp
  23:	24 03       	bcc	0x28 <_rcall\+0x28>
  25:	7e 00 00    	jmp	0x0 <_rcall>
	bcc	bidule		; -> to a bcs\+jmp
  28:	25 03       	bcs	0x2d <_rcall\+0x2d>
  2a:	7e 00 00    	jmp	0x0 <_rcall>
	xgdx
  2d:	8f          	xgdx
	jbra	200
  2e:	7e 00 c8    	jmp	0xc8 <_rcall\+0xc8>
	jbsr	1923
  31:	bd 07 83    	jsr	0x783 <L0\+0x602>
	bne	Lend		; -> to a beq\+jmp
  34:	27 03       	beq	0x39 <_rcall\+0x39>
  36:	7e 00 00    	jmp	0x0 <_rcall>
	jbsr	toto
  39:	bd 00 00    	jsr	0x0 <_rcall>
	jbeq	toto
  3c:	26 03       	bne	0x41 <_rcall\+0x41>
  3e:	7e 00 00    	jmp	0x0 <_rcall>
	...
	.skip 200
	ldaa	\*dir		;96 33
 109:	96 00       	ldaa	\*0x0 <_rcall>

0000010b <Lend>:
Lend:
	bhi	external_op
 10b:	23 03       	bls	0x110 <Lend\+0x5>
 10d:	7e 00 00    	jmp	0x0 <_rcall>
	bls	external_op
 110:	22 03       	bhi	0x115 <Lend\+0xa>
 112:	7e 00 00    	jmp	0x0 <_rcall>
	bsr	out
 115:	bd 00 00    	jsr	0x0 <_rcall>
	ldx	#12
 118:	ce 00 0c    	ldx	#0xc <_rcall\+0xc>

0000011b <toto>:
toto:	
	rts
 11b:	39          	rts
	...

00000180 <bidule>:
	.skip 100
bidule:
	rts
 180:	39          	rts
@


1.4
log
@* gas/m68hc11/bug-1825.d: Update to match changes in the
  information generated with source-in-disassembly listings.
  * gas/m68hc11/indexed12.d: Likewise.
  * gas/m68hc11/insns-dwarf2.d: Likewise.
  * gas/m68hc11/lbranch-dwarf2.d: Likewise.
@
text
@d19 1
a19 1
   0:	86 10       	ldaa	#16
d21 1
a21 1
   2:	7e 00 00    	jmp	0 <_rcall>
d23 1
a23 1
   5:	bd 00 00    	jsr	0 <_rcall>
d25 2
a26 2
   8:	27 03       	beq	d <_rcall\+0xd>
   a:	7e 00 00    	jmp	0 <_rcall>
d28 2
a29 2
   d:	26 03       	bne	12 <_rcall\+0x12>
   f:	7e 00 00    	jmp	0 <_rcall>
d31 2
a32 2
  12:	24 03       	bcc	17 <_rcall\+0x17>
  14:	7e 00 00    	jmp	0 <_rcall>
d34 2
a35 2
  17:	25 03       	bcs	1c <_rcall\+0x1c>
  19:	7e 00 00    	jmp	0 <_rcall>
d41 2
a42 2
  1e:	26 03       	bne	23 <_rcall\+0x23>
  20:	7e 00 00    	jmp	0 <_rcall>
d44 2
a45 2
  23:	24 03       	bcc	28 <_rcall\+0x28>
  25:	7e 00 00    	jmp	0 <_rcall>
d47 2
a48 2
  28:	25 03       	bcs	2d <_rcall\+0x2d>
  2a:	7e 00 00    	jmp	0 <_rcall>
d52 1
a52 1
  2e:	7e 00 c8    	jmp	c8 <_rcall\+0xc8>
d54 1
a54 1
  31:	bd 07 83    	jsr	783 <L0\+0x602>
d56 2
a57 2
  34:	27 03       	beq	39 <_rcall\+0x39>
  36:	7e 00 00    	jmp	0 <_rcall>
d59 1
a59 1
  39:	bd 00 00    	jsr	0 <_rcall>
d61 2
a62 2
  3c:	26 03       	bne	41 <_rcall\+0x41>
  3e:	7e 00 00    	jmp	0 <_rcall>
d66 1
a66 1
 109:	96 00       	ldaa	\*0 <_rcall>
d71 2
a72 2
 10b:	23 03       	bls	110 <Lend\+0x5>
 10d:	7e 00 00    	jmp	0 <_rcall>
d74 2
a75 2
 110:	22 03       	bhi	115 <Lend\+0xa>
 112:	7e 00 00    	jmp	0 <_rcall>
d77 1
a77 1
 115:	bd 00 00    	jsr	0 <_rcall>
d79 1
a79 1
 118:	ce 00 0c    	ldx	#c <_rcall\+0xc>
@


1.3
log
@	* gas/m68hc11/opers12-dwarf2.d: Update, local label prefix removed.
	* gas/m68hc11/lbranch-dwarf2.d: Update.
@
text
@d13 1
@


1.2
log
@	* gas/m68hc11/all.exp: Run the new test.
	* gas/m68hc11/insns12.s: New file to test specific 68HC12 insns.
	* gas/m68hc11/insns12.d: New file.
	* gas/m68hc11/branchs12.s: New test.
	* gas/m68hc11/branchs12.d: New test.

	* gas/m68hc11/all_insns.d: Dump the relocs to verify that they
	are against symbols and not sections (for linker relaxation).
	* gas/m68hc11/insns-dwarf2.d: Likewise.
	* gas/m68hc11/insns.d: Likewise.
	* gas/m68hc11/lbranch.d: Likewise.
	* gas/m68hc11/lbranch-dwarf2.d: Likewise.
	* gas/m68hc11/opers12.d: Likewise.
	* gas/m68hc11/opers12-dwarf2.d: Likewise.
@
text
@d53 1
a53 1
  31:	bd 07 83    	jsr	783 <.L0\+0x602>
@


1.1
log
@Dwarf2 test for 68HC11/68HC12 gas
@
text
@d12 1
a12 1
0+0 <_rcall>:
d17 2
a18 2
	ldaa	\#0x10		;86 10
   0:	86 10       	ldaa	\#16
d20 4
a23 4
   2:	7e 01 0b    	jmp	10b <Lend>
	jbsr	toto		; \-> to a jsr
   5:	bd 01 1b    	jsr	11b <toto>
	jbne	toto		; \-> to a beq\+jmp
d25 1
a25 1
   a:	7e 01 1b    	jmp	11b <toto>
d28 1
a28 1
   f:	7e 01 1b    	jmp	11b <toto>
d31 1
a31 1
  14:	7e 01 1b    	jmp	11b <toto>
d34 1
a34 1
  19:	7e 01 1b    	jmp	11b <toto>
d41 1
a41 1
  20:	7e 01 80    	jmp	180 <bidule>
d44 1
a44 1
  25:	7e 01 80    	jmp	180 <bidule>
d47 1
a47 1
  2a:	7e 01 80    	jmp	180 <bidule>
d53 1
a53 1
  31:	bd 07 83    	jsr	783 <bidule\+0x603>
d56 1
a56 1
  36:	7e 01 0b    	jmp	10b <Lend>
d58 1
a58 1
  39:	bd 01 1b    	jsr	11b <toto>
d61 1
a61 1
  3e:	7e 01 1b    	jmp	11b <toto>
@

