head	1.8;
access;
symbols
	binutils-2_24-branch:1.8.0.14
	binutils-2_24-branchpoint:1.8
	binutils-2_21_1:1.8
	binutils-2_23_2:1.8
	binutils-2_23_1:1.8
	binutils-2_23:1.8
	binutils-2_23-branch:1.8.0.12
	binutils-2_23-branchpoint:1.8
	binutils-2_22_branch:1.8.0.10
	binutils-2_22:1.8
	binutils-2_22-branch:1.8.0.8
	binutils-2_22-branchpoint:1.8
	binutils-2_21:1.8
	binutils-2_21-branch:1.8.0.6
	binutils-2_21-branchpoint:1.8
	binutils-2_20_1:1.8
	binutils-2_20:1.8
	binutils-arc-20081103-branch:1.7.0.8
	binutils-arc-20081103-branchpoint:1.7
	binutils-2_20-branch:1.8.0.4
	binutils-2_20-branchpoint:1.8
	dje-cgen-play1-branch:1.8.0.2
	dje-cgen-play1-branchpoint:1.8
	arc-20081103-branch:1.7.0.6
	arc-20081103-branchpoint:1.7
	binutils-2_19_1:1.7
	binutils-2_19:1.7
	binutils-2_19-branch:1.7.0.4
	binutils-2_19-branchpoint:1.7
	binutils-2_18:1.7
	binutils-2_18-branch:1.7.0.2
	binutils-2_18-branchpoint:1.7
	binutils-csl-coldfire-4_1-32:1.6
	binutils-csl-sourcerygxx-4_1-32:1.6
	binutils-csl-innovasic-fido-3_4_4-33:1.6
	binutils-csl-sourcerygxx-3_4_4-32:1.6
	binutils-csl-coldfire-4_1-30:1.6
	binutils-csl-sourcerygxx-4_1-30:1.6
	binutils-csl-coldfire-4_1-28:1.6
	binutils-csl-sourcerygxx-4_1-29:1.6
	binutils-csl-sourcerygxx-4_1-28:1.6
	binutils-csl-arm-2006q3-27:1.6
	binutils-csl-sourcerygxx-4_1-27:1.6
	binutils-csl-arm-2006q3-26:1.6
	binutils-csl-sourcerygxx-4_1-26:1.6
	binutils-csl-sourcerygxx-4_1-25:1.6
	binutils-csl-sourcerygxx-4_1-24:1.6
	binutils-csl-sourcerygxx-4_1-23:1.6
	binutils-csl-sourcerygxx-4_1-21:1.6
	binutils-csl-arm-2006q3-21:1.6
	binutils-csl-sourcerygxx-4_1-22:1.6
	binutils-csl-palmsource-arm-prelinker-1_0-1:1.6
	binutils-csl-sourcerygxx-4_1-20:1.6
	binutils-csl-arm-2006q3-19:1.6
	binutils-csl-sourcerygxx-4_1-19:1.6
	binutils-csl-sourcerygxx-4_1-18:1.6
	binutils-csl-renesas-4_1-9:1.6
	binutils-csl-sourcerygxx-3_4_4-25:1.6
	binutils-csl-renesas-4_1-8:1.6
	binutils-csl-renesas-4_1-7:1.6
	binutils-csl-renesas-4_1-6:1.6
	binutils-csl-sourcerygxx-4_1-17:1.6
	binutils-csl-sourcerygxx-4_1-14:1.6
	binutils-csl-sourcerygxx-4_1-15:1.6
	binutils-csl-sourcerygxx-4_1-13:1.6
	binutils-2_17:1.6
	binutils-csl-sourcerygxx-4_1-12:1.6
	binutils-csl-sourcerygxx-3_4_4-21:1.6
	binutils-csl-wrs-linux-3_4_4-24:1.6
	binutils-csl-wrs-linux-3_4_4-23:1.6
	binutils-csl-sourcerygxx-4_1-9:1.6
	binutils-csl-sourcerygxx-4_1-8:1.6
	binutils-csl-sourcerygxx-4_1-7:1.6
	binutils-csl-arm-2006q1-6:1.6
	binutils-csl-sourcerygxx-4_1-6:1.6
	binutils-csl-wrs-linux-3_4_4-22:1.6
	binutils-csl-coldfire-4_1-11:1.6
	binutils-csl-sourcerygxx-3_4_4-19:1.6
	binutils-csl-coldfire-4_1-10:1.6
	binutils-csl-sourcerygxx-4_1-5:1.6
	binutils-csl-sourcerygxx-4_1-4:1.6
	binutils-csl-wrs-linux-3_4_4-21:1.6
	binutils-csl-morpho-4_1-4:1.6
	binutils-csl-sourcerygxx-3_4_4-17:1.6
	binutils-csl-wrs-linux-3_4_4-20:1.6
	binutils-2_17-branch:1.6.0.16
	binutils-2_17-branchpoint:1.6
	binutils-csl-2_17-branch:1.6.0.14
	binutils-csl-2_17-branchpoint:1.6
	binutils-csl-gxxpro-3_4-branch:1.6.0.12
	binutils-csl-gxxpro-3_4-branchpoint:1.6
	binutils-2_16_1:1.6
	binutils-csl-arm-2005q1b:1.6
	binutils-2_16:1.6
	binutils-csl-arm-2005q1a:1.6
	binutils-csl-arm-2005q1-branch:1.6.0.10
	binutils-csl-arm-2005q1-branchpoint:1.6
	binutils-2_16-branch:1.6.0.8
	binutils-2_16-branchpoint:1.6
	csl-arm-2004-q3d:1.6
	csl-arm-2004-q3:1.6
	binutils-2_15:1.6
	binutils-2_15-branchpoint:1.6
	csl-arm-2004-q1a:1.6
	csl-arm-2004-q1:1.6
	binutils-2_15-branch:1.6.0.6
	cagney_bfdfile-20040213-branch:1.6.0.4
	cagney_bfdfile-20040213-branchpoint:1.6
	cagney_bigcore-20040122-branch:1.6.0.2
	cagney_bigcore-20040122-branchpoint:1.6
	csl-arm-2003-q4:1.6
	binutils-2_14:1.5.4.1
	binutils-2_14-branch:1.5.0.4
	binutils-2_14-branchpoint:1.5
	binutils-2_13_2_1:1.5
	binutils-2_13_2:1.5
	binutils-2_13_1:1.5
	binutils-2_13:1.5
	binutils-2_13-branchpoint:1.5
	binutils-2_13-branch:1.5.0.2
	binutils-2_12_1:1.3.2.1
	binutils-2_12:1.3.2.1
	binutils-2_12-branch:1.3.0.2
	binutils-2_12-branchpoint:1.3
	cygnus_cvs_20020108_pre:1.3
	binutils_latest_snapshot:1.8;
locks; strict;
comment	@# @;


1.8
date	2009.02.16.09.19.32;	author nickc;	state Exp;
branches;
next	1.7;

1.7
date	2006.05.23.15.37.20;	author ths;	state Exp;
branches;
next	1.6;

1.6
date	2003.05.07.05.08.20;	author aoliva;	state Exp;
branches;
next	1.5;

1.5
date	2002.04.22.22.29.47;	author cgd;	state Exp;
branches
	1.5.4.1;
next	1.4;

1.4
date	2002.02.25.13.21.38;	author ths;	state Exp;
branches;
next	1.3;

1.3
date	2001.10.04.00.57.01;	author ths;	state Exp;
branches
	1.3.2.1;
next	1.2;

1.2
date	2001.08.05.00.53.28;	author hjl;	state Exp;
branches;
next	1.1;

1.1
date	2001.08.02.10.16.50;	author rsandifo;	state Exp;
branches;
next	;

1.5.4.1
date	2003.05.15.19.19.35;	author drow;	state Exp;
branches;
next	;

1.3.2.1
date	2002.02.25.10.14.32;	author ths;	state Exp;
branches;
next	;


desc
@@


1.8
log
@        * gas/mips/e32-rel2.d: Adjust expected output to remove the 0x4000
        offset.
        * gas/mips/e32el-rel2.d: Likewise.
        * gas/mips/elf-rel2.d: Likewise.
        * gas/mips/elf-rel9-mips16.d: Likewise.
        * gas/mips/elf-rel9.d: Likewise.
        * gas/mips/elfel-rel2.d: Likewise.
        * gas/mips/lb.d: Likewise.
        * gas/mips/mips-abi32.d: Likewise.
        * gas/mips/mips-gp32-fp32.d: Likewise.
        * gas/mips/mips-gp32-fp64.d: Likewise.
        * gas/mips/mips-gp64-fp32.d: Likewise.
        * gas/mips/mips-gp64-fp64.d: Likewise.
        * gas/mips/mips32-sf32.d: Likewise.
@
text
@#objdump: -d -mmips:8000
#as: -mabi=o64 -march=8000 -EB
#name: MIPS -mgp64 -mfp64
#stderr: mips-gp64-fp64.l

.*: +file format.*

Disassembly of section .text:

0+000 <[^>]*>:
   0:	3c041234 	lui	a0,0x1234
   4:	34845678 	ori	a0,a0,0x5678
   8:	27840000 	addiu	a0,gp,0
   c:	3c040000 	lui	a0,0x0
  10:	24840000 	addiu	a0,a0,0
  14:	3c040000 	lui	a0,0x0
  18:	24840160 	addiu	a0,a0,352
  1c:	08000058 	j	160 <[^>]*>
  20:	0c000058 	jal	160 <[^>]*>
  24:	8f840000 	lw	a0,0\(gp\)
  28:	3c040000 	lui	a0,0x0
  2c:	8c840000 	lw	a0,0\(a0\)
  30:	3c040000 	lui	a0,0x0
  34:	8c840160 	lw	a0,352\(a0\)
  38:	df840000 	ld	a0,0\(gp\)
  3c:	3c040000 	lui	a0,0x0
  40:	dc840000 	ld	a0,0\(a0\)
  44:	3c040000 	lui	a0,0x0
  48:	dc840160 	ld	a0,352\(a0\)
  4c:	af840000 	sw	a0,0\(gp\)
  50:	3c010000 	lui	at,0x0
  54:	ac240000 	sw	a0,0\(at\)
  58:	ff840000 	sd	a0,0\(gp\)
  5c:	3c010000 	lui	at,0x0
  60:	fc240000 	sd	a0,0\(at\)
  64:	3c010000 	lui	at,0x0
  68:	24210000 	addiu	at,at,0
  6c:	80240000 	lb	a0,0\(at\)
  70:	90210001 	lbu	at,1\(at\)
  74:	00042200 	sll	a0,a0,0x8
  78:	00812025 	or	a0,a0,at
  7c:	3c010000 	lui	at,0x0
  80:	24210000 	addiu	at,at,0
  84:	a0240001 	sb	a0,1\(at\)
  88:	00042202 	srl	a0,a0,0x8
  8c:	a0240000 	sb	a0,0\(at\)
  90:	90210001 	lbu	at,1\(at\)
  94:	00042200 	sll	a0,a0,0x8
  98:	00812025 	or	a0,a0,at
  9c:	3c010000 	lui	at,0x0
  a0:	24210000 	addiu	at,at,0
  a4:	88240000 	lwl	a0,0\(at\)
  a8:	98240003 	lwr	a0,3\(at\)
  ac:	3c010000 	lui	at,0x0
  b0:	24210000 	addiu	at,at,0
  b4:	a8240000 	swl	a0,0\(at\)
  b8:	b8240003 	swr	a0,3\(at\)
  bc:	3404ffc0 	li	a0,0xffc0
  c0:	000423bc 	dsll32	a0,a0,0xe
  c4:	3c010000 	lui	at,0x0
  c8:	dc240000 	ld	a0,0\(at\)
  cc:	3401ffc0 	li	at,0xffc0
  d0:	00010bbc 	dsll32	at,at,0xe
  d4:	44a10000 	dmtc1	at,\$f0
  d8:	d7800000 	ldc1	\$f0,0\(gp\)
  dc:	64a40064 	daddiu	a0,a1,100
  e0:	2c840001 	sltiu	a0,a0,1
  e4:	64a40064 	daddiu	a0,a1,100
  e8:	0004202b 	sltu	a0,zero,a0
  ec:	00a0202d 	move	a0,a1
  f0:	27840000 	addiu	a0,gp,0
  f4:	3c040000 	lui	a0,0x0
  f8:	24840000 	addiu	a0,a0,0
  fc:	3c010000 	lui	at,0x0
 100:	24210000 	addiu	at,at,0
 104:	68240000 	ldl	a0,0\(at\)
 108:	6c240007 	ldr	a0,7\(at\)
 10c:	3c010000 	lui	at,0x0
 110:	24210000 	addiu	at,at,0
 114:	b0240000 	sdl	a0,0\(at\)
 118:	b4240007 	sdr	a0,7\(at\)
 11c:	34018000 	li	at,0x8000
 120:	00010c38 	dsll	at,at,0x10
 124:	0081082a 	slt	at,a0,at
 128:	1020000d 	beqz	at,160 <[^>]*>
 12c:	34018000 	li	at,0x8000
 130:	00010c78 	dsll	at,at,0x11
 134:	0081082b 	sltu	at,a0,at
 138:	10200009 	beqz	at,160 <[^>]*>
 13c:	34018000 	li	at,0x8000
 140:	00010c38 	dsll	at,at,0x10
 144:	0081082a 	slt	at,a0,at
 148:	14200005 	bnez	at,160 <[^>]*>
 14c:	34018000 	li	at,0x8000
 150:	00010c78 	dsll	at,at,0x11
 154:	0081082b 	sltu	at,a0,at
 158:	14200001 	bnez	at,160 <[^>]*>
 15c:	46231040 	add.d	\$f1,\$f2,\$f3

0+0160 <[^>]*>:
	...
@


1.7
log
@	[ gas/ChangeLog ]
	* config/tc-mips.c (ISA_SUPPORTS_SMARTMIPS): Rename.
	(ISA_SUPPORTS_DSP_ASE, ISA_SUPPORTS_MT_ASE, ISA_HAS_64BIT_FPRS,
	ISA_HAS_MXHC1): New macros.
	(HAVE_32BIT_FPRS): Use ISA_HAS_64BIT_FPRS instead of
	ISA_HAS_64BIT_REGS.  Formatting fixes.  Improved comments.
	(mips_cpu_info): Change to use combined ASE/IS_ISA flag.
	(MIPS_CPU_IS_ISA, MIPS_CPU_ASE_SMARTMIPS, MIPS_CPU_ASE_DSP,
	MIPS_CPU_ASE_MT, MIPS_CPU_ASE_MIPS3D, MIPS_CPU_ASE_MDMX): New defines.
	(mips_after_parse_args): Change default handling of float register
	size to account for 32bit code with 64bit FP. Better sanity checking
	of ISA/ASE/ABI option combinations.
	(s_mipsset): Support switching of GPR and FPR sizes via
	.set {g,f}p={32,64,default}. Better sanity checking for .set ASE
	options.
	(mips_elf_final_processing): We should record the use of 64bit FP
	registers in 32bit code but we don't, because ELF header flags are
	a scarce ressource.
	(mips_cpu_info_table): Add ASE flags for CPUs with mandatory ASE
	extensions. Add 4ksc, 4kec, 4kem, 4kep, 4ksd, m4kp, 24kec, 24kef,
	24kex, 34kc, 34kf, 34kx, 25kf CPU definitions.
	(mips_cpu_info_from_isa): Use MIPS_CPU_IS_ISA.
	* doc/c-mips.texi: Document .set {g,f}p={32,64,default}. Document
	missing -march options. Document .set arch=CPU. Move .set smartmips
	to ASE page. Use @@code for .set FOO examples.

	[ gas/testsuite/Changelog ]
	* gas/mips/mips-gp32-fp64-pic.d, mips/mips-gp32-fp64.d,
	gas/mips/mips-gp64-fp32-pic.d, gas/mips/mips-gp64-fp32.l,
	gas/mips/mips-gp64-fp64.d: Adjust test cases to the changes assembler
	output.
	* gas/mips/mips-gp32-fp64.l, gas/mips/mips-gp64-fp32-pic.l: New files,
	catch assembler warnings.
@
text
@d13 1
a13 1
   8:	2784c000 	addiu	a0,gp,-16384
d20 1
a20 1
  24:	8f84c000 	lw	a0,-16384\(gp\)
d25 1
a25 1
  38:	df84c000 	ld	a0,-16384\(gp\)
d30 1
a30 1
  4c:	af84c000 	sw	a0,-16384\(gp\)
d33 1
a33 1
  58:	ff84c000 	sd	a0,-16384\(gp\)
d65 1
a65 1
  d8:	d780c000 	ldc1	\$f0,-16384\(gp\)
d71 1
a71 1
  f0:	2784c000 	addiu	a0,gp,-16384
@


1.6
log
@* gas/mips/abs.d, gas/mips/add.d, gas/mips/and.d,
gas/mips/beq.d, gas/mips/bge.d, gas/mips/bgeu.d,
gas/mips/blt.d, gas/mips/bltu.d, gas/mips/branch-misc-1.d,
gas/mips/break20.d, gas/mips/cp0sel-names-mips32.d,
gas/mips/cp0sel-names-mips32r2.d,
gas/mips/cp0sel-names-mips64.d,
gas/mips/cp0sel-names-numeric.d, gas/mips/cp0sel-names-sb1.d,
gas/mips/elf-jal.d, gas/mips/elf-rel.d, gas/mips/elf-rel2.d,
gas/mips/elf-rel3.d, gas/mips/elf-rel4.d, gas/mips/elf-rel5.d,
gas/mips/elf-rel6.d, gas/mips/elf-rel7.d,
gas/mips/elf_arch_mips1.d, gas/mips/elf_arch_mips2.d,
gas/mips/elf_arch_mips3.d, gas/mips/elf_arch_mips32.d,
gas/mips/elf_arch_mips32r2.d, gas/mips/elf_arch_mips4.d,
gas/mips/elf_arch_mips5.d, gas/mips/elf_arch_mips64.d,
gas/mips/elf_ase_mips16.d, gas/mips/empic.d,
gas/mips/empic2.d, gas/mips/empic3_e.d, gas/mips/empic3_g1.d,
gas/mips/empic3_g2.d, gas/mips/hwr-names-mips32r2.d,
gas/mips/hwr-names-numeric.d, gas/mips/jal-empic-elf-2.d,
gas/mips/jal-empic-elf-3.d, gas/mips/jal-empic-elf.d,
gas/mips/jal-svr4pic.d, gas/mips/jal-xgot.d, gas/mips/jal.d,
gas/mips/la-empic.d, gas/mips/la-svr4pic.d,
gas/mips/la-xgot.d, gas/mips/la.d, gas/mips/lb-empic.d,
gas/mips/lb-svr4pic.d, gas/mips/lb-xgot-ilocks.d,
gas/mips/lb-xgot.d, gas/mips/lb.d, gas/mips/ld-empic.d,
gas/mips/ld-svr4pic.d, gas/mips/ld-xgot.d, gas/mips/ld.d,
gas/mips/li.d, gas/mips/lif-empic.d, gas/mips/lif-svr4pic.d,
gas/mips/lif-xgot.d, gas/mips/lifloat.d,
gas/mips/mips-gp32-fp32-pic.d, gas/mips/mips-gp32-fp32.d,
gas/mips/mips-gp32-fp64-pic.d, gas/mips/mips-gp32-fp64.d,
gas/mips/mips-gp64-fp32-pic.d, gas/mips/mips-gp64-fp32.d,
gas/mips/mips-gp64-fp64-pic.d, gas/mips/mips-gp64-fp64.d,
gas/mips/mips.exp, gas/mips/mips16-e.d, gas/mips/mips16-f.d,
gas/mips/mips32.d, gas/mips/mips32r2.d, gas/mips/mips4010.d,
gas/mips/mips4650.d, gas/mips/mips64.d, gas/mips/mipsel16-e.d,
gas/mips/mipsel16-f.d, gas/mips/rol-hw.d, gas/mips/rol.d,
gas/mips/sb.d, gas/mips/sync.d, gas/mips/tempic.d,
gas/mips/tmips16-e.d, gas/mips/tmips16-f.d,
gas/mips/tmipsel16-e.d, gas/mips/tmipsel16-f.d,
gas/mips/trunc.d, gas/mips/uld.d, gas/mips/ulh-empic.d,
gas/mips/ulh-svr4pic.d, gas/mips/ulh-xgot.d, gas/mips/ulh.d,
gas/mips/ulh2-eb.d, gas/mips/ulh2-el.d, gas/mips/ulw.d,
gas/mips/ulw2-eb.d, gas/mips/ulw2-eb-ilocks.d, gas/mips/ulw2-el.d,
gas/mips/ulw2-el-ilocks.d, gas/mips/usd.d, gas/mips/ush.d,
gas/mips/usw.d, gas/mips/vr4122.d: Added ABI specification.
gas/vtable/vtable.exp: mips64*-*-linux* and mips*-*-irix6* are
RELA.
@
text
@d4 1
a4 1
#stderr: mips-gp64-fp32.l
@


1.5
log
@2002-04-22  Chris Demetriou  <cgd@@broadcom.com>

        * gas/mips/mips-gp64-fp32.l: New file.
        * gas/mips/mips-gp64-fp32.d: Use mips-gp64-fp32.l to check stderr
        output.
        * gas/mips/mips-gp64-fp64.l: New file.
        * gas/mips/mips-gp64-fp64.d: Use mips-gp64-fp64.l to check stderr
        output.
@
text
@d2 1
a2 1
#as: -march=8000 -EB
@


1.5.4.1
log
@	Merge from mainline:

	2003-05-06  Alexandre Oliva  <aoliva@@redhat.com>
	* gas/mips/abs.d, gas/mips/add.d, gas/mips/and.d,
	gas/mips/beq.d, gas/mips/bge.d, gas/mips/bgeu.d,
	gas/mips/blt.d, gas/mips/bltu.d, gas/mips/branch-misc-1.d,
	gas/mips/break20.d, gas/mips/cp0sel-names-mips32.d,
	gas/mips/cp0sel-names-mips32r2.d,
	gas/mips/cp0sel-names-mips64.d,
	gas/mips/cp0sel-names-numeric.d, gas/mips/cp0sel-names-sb1.d,
	gas/mips/elf-jal.d, gas/mips/elf-rel.d, gas/mips/elf-rel2.d,
	gas/mips/elf-rel3.d, gas/mips/elf-rel4.d, gas/mips/elf-rel5.d,
	gas/mips/elf-rel6.d, gas/mips/elf-rel7.d,
	gas/mips/elf_arch_mips1.d, gas/mips/elf_arch_mips2.d,
	gas/mips/elf_arch_mips3.d, gas/mips/elf_arch_mips32.d,
	gas/mips/elf_arch_mips32r2.d, gas/mips/elf_arch_mips4.d,
	gas/mips/elf_arch_mips5.d, gas/mips/elf_arch_mips64.d,
	gas/mips/elf_ase_mips16.d, gas/mips/empic.d,
	gas/mips/empic2.d, gas/mips/empic3_e.d, gas/mips/empic3_g1.d,
	gas/mips/empic3_g2.d, gas/mips/hwr-names-mips32r2.d,
	gas/mips/hwr-names-numeric.d, gas/mips/jal-empic-elf-2.d,
	gas/mips/jal-empic-elf-3.d, gas/mips/jal-empic-elf.d,
	gas/mips/jal-svr4pic.d, gas/mips/jal-xgot.d, gas/mips/jal.d,
	gas/mips/la-empic.d, gas/mips/la-svr4pic.d,
	gas/mips/la-xgot.d, gas/mips/la.d, gas/mips/lb-empic.d,
	gas/mips/lb-svr4pic.d, gas/mips/lb-xgot-ilocks.d,
	gas/mips/lb-xgot.d, gas/mips/lb.d, gas/mips/ld-empic.d,
	gas/mips/ld-svr4pic.d, gas/mips/ld-xgot.d, gas/mips/ld.d,
	gas/mips/li.d, gas/mips/lif-empic.d, gas/mips/lif-svr4pic.d,
	gas/mips/lif-xgot.d, gas/mips/lifloat.d,
	gas/mips/mips-gp32-fp32-pic.d, gas/mips/mips-gp32-fp32.d,
	gas/mips/mips-gp32-fp64-pic.d, gas/mips/mips-gp32-fp64.d,
	gas/mips/mips-gp64-fp32-pic.d, gas/mips/mips-gp64-fp32.d,
	gas/mips/mips-gp64-fp64-pic.d, gas/mips/mips-gp64-fp64.d,
	gas/mips/mips.exp, gas/mips/mips16-e.d, gas/mips/mips16-f.d,
	gas/mips/mips32.d, gas/mips/mips32r2.d, gas/mips/mips4010.d,
	gas/mips/mips4650.d, gas/mips/mips64.d, gas/mips/mipsel16-e.d,
	gas/mips/mipsel16-f.d, gas/mips/rol-hw.d, gas/mips/rol.d,
	gas/mips/sb.d, gas/mips/sync.d, gas/mips/tempic.d,
	gas/mips/tmips16-e.d, gas/mips/tmips16-f.d,
	gas/mips/tmipsel16-e.d, gas/mips/tmipsel16-f.d,
	gas/mips/trunc.d, gas/mips/uld.d, gas/mips/ulh-empic.d,
	gas/mips/ulh-svr4pic.d, gas/mips/ulh-xgot.d, gas/mips/ulh.d,
	gas/mips/ulh2-eb.d, gas/mips/ulh2-el.d, gas/mips/ulw.d,
	gas/mips/ulw2-eb.d, gas/mips/ulw2-eb-ilocks.d, gas/mips/ulw2-el.d,
	gas/mips/ulw2-el-ilocks.d, gas/mips/usd.d, gas/mips/ush.d,
	gas/mips/usw.d, gas/mips/vr4122.d: Added ABI specification.
	gas/vtable/vtable.exp: mips64*-*-linux* and mips*-*-irix6* are
	RELA.
@
text
@d2 1
a2 1
#as: -mabi=o64 -march=8000 -EB
@


1.4
log
@	* config/tc-mips.c (set_at): Fix handling of 64bit register loads.
	(macro): Likewise. Fix la/dla address expansions for EMBEDDED_PIC
	and NO_PIC cases. Code cleanup.
	(macro2): Fix handling of 64bit register loads.
	* mips-gp64-fp32-pic.d: Fix test of 64bit register loads.
	* mips-gp64-fp32-pic.s: Likewise.
	* mips-gp64-fp32.d: Likewise.
	* mips-gp64-fp32.s: Likewise.
	* mips-gp64-fp64-pic.d: Likewise.
	* mips-gp64-fp64-pic.s: Likewise.
	* mips-gp64-fp64.d: Likewise.
	* mips-gp64-fp64.s: Likewise.
@
text
@d4 1
@


1.3
log
@     Testcase updates for the previous patch.
@
text
@d16 3
a18 3
  18:	24840158 	addiu	a0,a0,344
  1c:	08000056 	j	158 <[^>]*>
  20:	0c000056 	jal	158 <[^>]*>
d23 1
a23 1
  34:	8c840158 	lw	a0,344\(a0\)
d28 1
a28 1
  48:	dc840158 	ld	a0,344\(a0\)
d81 17
a97 15
 11c:	3c018000 	lui	at,0x8000
 120:	0081082a 	slt	at,a0,at
 124:	1020000c 	beqz	at,158 <[^>]*>
 128:	34018000 	li	at,0x8000
 12c:	00010c78 	dsll	at,at,0x11
 130:	0081082b 	sltu	at,a0,at
 134:	10200008 	beqz	at,158 <[^>]*>
 138:	3c018000 	lui	at,0x8000
 13c:	0081082a 	slt	at,a0,at
 140:	14200005 	bnez	at,158 <[^>]*>
 144:	34018000 	li	at,0x8000
 148:	00010c78 	dsll	at,at,0x11
 14c:	0081082b 	sltu	at,a0,at
 150:	14200001 	bnez	at,158 <[^>]*>
 154:	46231040 	add.d	\$f1,\$f2,\$f3
d99 1
a99 1
0+0158 <[^>]*>:
@


1.3.2.1
log
@	* config/tc-mips.c (set_at): Fix handling of 64bit register loads.
	(macro): Likewise. Fix la/dla address expansions for EMBEDDED_PIC
	and NO_PIC cases. Code cleanup.
	(macro2): Fix handling of 64bit register loads.
	* mips-gp64-fp32-pic.d: Fix test of 64bit register loads.
	* mips-gp64-fp32-pic.s: Likewise.
	* mips-gp64-fp32.d: Likewise.
	* mips-gp64-fp32.s: Likewise.
	* mips-gp64-fp64-pic.d: Likewise.
	* mips-gp64-fp64-pic.s: Likewise.
	* mips-gp64-fp64.d: Likewise.
	* mips-gp64-fp64.s: Likewise.
@
text
@d16 3
a18 3
  18:	24840160 	addiu	a0,a0,352
  1c:	08000058 	j	160 <[^>]*>
  20:	0c000058 	jal	160 <[^>]*>
d23 1
a23 1
  34:	8c840160 	lw	a0,352\(a0\)
d28 1
a28 1
  48:	dc840160 	ld	a0,352\(a0\)
d81 15
a95 17
 11c:	34018000 	li	at,0x8000
 120:	00010c38 	dsll	at,at,0x10
 124:	0081082a 	slt	at,a0,at
 128:	1020000d 	beqz	at,160 <[^>]*>
 12c:	34018000 	li	at,0x8000
 130:	00010c78 	dsll	at,at,0x11
 134:	0081082b 	sltu	at,a0,at
 138:	10200009 	beqz	at,160 <[^>]*>
 13c:	34018000 	li	at,0x8000
 140:	00010c38 	dsll	at,at,0x10
 144:	0081082a 	slt	at,a0,at
 148:	14200005 	bnez	at,160 <[^>]*>
 14c:	34018000 	li	at,0x8000
 150:	00010c78 	dsll	at,at,0x11
 154:	0081082b 	sltu	at,a0,at
 158:	14200001 	bnez	at,160 <[^>]*>
 15c:	46231040 	add.d	\$f1,\$f2,\$f3
d97 1
a97 1
0+0160 <[^>]*>:
@


1.2
log
@2001-08-04  H.J. Lu  <hjl@@gnu.org>
	    Chris G. Demetriou <cgd@@broadcom.com>

	* gas/mips/e32-rel4.s: Removed.

	* gas/mips/e32-rel4.d: Use elf-rel4.s.

	* gas/mips/mips.exp: Use the same rel4 test for litte endian.

	* gas/mips/mips-abi32-pic.d: Add lines for objdump.
	* gas/mips/mips-abi32.d: Likewise.
	* gas/mips/mips-gp32-fp32-pic.d: Likewise.
	* gas/mips/mips-gp32-fp32.d: Likewise.
	* gas/mips/mips-gp32-fp64-pic.d: Likewise.
	* gas/mips/mips-gp32-fp64.d: Likewise.
	* gas/mips/mips-gp64-fp32-pic.d: Likewise.
	* gas/mips/mips-gp64-fp32.d: Likewise.
	* gas/mips/mips-gp64-fp64-pic.d: Likewise.
	* gas/mips/mips-gp64-fp64.d: Likewise.

	* gas/mips/mips-abi32-pic.s: Add space for objdump.
	* gas/mips/mips-abi32.s: Likewise.
	* gas/mips/mips-gp32-fp32-pic.s: Likewise.
	* gas/mips/mips-gp32-fp32.s: Likewise.
	* gas/mips/mips-gp32-fp64-pic.s: Likewise.
	* gas/mips/mips-gp32-fp64.s: Likewise.
	* gas/mips/mips-gp64-fp32-pic.s: Likewise.
	* gas/mips/mips-gp64-fp32.s: Likewise.
	* gas/mips/mips-gp64-fp64-pic.s: Likewise.
	* gas/mips/mips-gp64-fp64.s: Likewise.

	* gas/mips/mips-abi32-pic.s: Add the missing .end.
	* gas/mips/mips-gp32-fp32-pic.s: Likewise.
	* gas/mips/mips-gp32-fp64-pic.s: Likewise.
	* gas/mips/mips-gp64-fp32-pic.s: Likewise.
	* gas/mips/mips-gp64-fp64-pic.s: Likewise.
@
text
@d12 1
a12 1
   8:	6784c000 	daddiu	a0,gp,-16384
d14 1
a14 1
  10:	64840000 	daddiu	a0,a0,0
d16 1
a16 1
  18:	64840158 	daddiu	a0,a0,344
d36 1
a36 1
  68:	64210000 	daddiu	at,at,0
d42 1
a42 1
  80:	64210000 	daddiu	at,at,0
d50 1
a50 1
  a0:	64210000 	daddiu	at,at,0
d54 1
a54 1
  b0:	64210000 	daddiu	at,at,0
d70 1
a70 1
  f0:	6784c000 	daddiu	a0,gp,-16384
d72 1
a72 1
  f8:	64840000 	daddiu	a0,a0,0
d74 1
a74 1
 100:	64210000 	daddiu	at,at,0
d78 1
a78 1
 110:	64210000 	daddiu	at,at,0
@


1.1
log
@	* gas/mips/mips-gp32-fp32,
	* gas/mips/mips-gp32-fp64,
	* gas/mips/mips-gp64-fp32,
	* gas/mips/mips-gp64-fp64,
	* gas/mips/mips-abi32,
	* gas/mips/mips-gp32-fp32-pic,
	* gas/mips/mips-gp32-fp64-pic,
	* gas/mips/mips-gp64-fp32-pic,
	* gas/mips/mips-gp64-fp64-pic,
	* gas/mips/mips-abi32-pic: New testcases.

	* gas/mips/mips.exp: Run them.
@
text
@d96 3
@

