head	1.4;
access;
symbols
	binutils-2_24-branch:1.4.0.22
	binutils-2_24-branchpoint:1.4
	binutils-2_21_1:1.4
	binutils-2_23_2:1.4
	binutils-2_23_1:1.4
	binutils-2_23:1.4
	binutils-2_23-branch:1.4.0.20
	binutils-2_23-branchpoint:1.4
	binutils-2_22_branch:1.4.0.18
	binutils-2_22:1.4
	binutils-2_22-branch:1.4.0.16
	binutils-2_22-branchpoint:1.4
	binutils-2_21:1.4
	binutils-2_21-branch:1.4.0.14
	binutils-2_21-branchpoint:1.4
	binutils-2_20_1:1.4
	binutils-2_20:1.4
	binutils-arc-20081103-branch:1.4.0.12
	binutils-arc-20081103-branchpoint:1.4
	binutils-2_20-branch:1.4.0.10
	binutils-2_20-branchpoint:1.4
	dje-cgen-play1-branch:1.4.0.8
	dje-cgen-play1-branchpoint:1.4
	arc-20081103-branch:1.4.0.6
	arc-20081103-branchpoint:1.4
	binutils-2_19_1:1.4
	binutils-2_19:1.4
	binutils-2_19-branch:1.4.0.4
	binutils-2_19-branchpoint:1.4
	binutils-2_18:1.4
	binutils-2_18-branch:1.4.0.2
	binutils-2_18-branchpoint:1.4
	binutils-csl-coldfire-4_1-32:1.3
	binutils-csl-sourcerygxx-4_1-32:1.3
	binutils-csl-innovasic-fido-3_4_4-33:1.3
	binutils-csl-sourcerygxx-3_4_4-32:1.3
	binutils-csl-coldfire-4_1-30:1.3
	binutils-csl-sourcerygxx-4_1-30:1.3
	binutils-csl-coldfire-4_1-28:1.3
	binutils-csl-sourcerygxx-4_1-29:1.3
	binutils-csl-sourcerygxx-4_1-28:1.3
	binutils-csl-arm-2006q3-27:1.3
	binutils-csl-sourcerygxx-4_1-27:1.3
	binutils-csl-arm-2006q3-26:1.3
	binutils-csl-sourcerygxx-4_1-26:1.3
	binutils-csl-sourcerygxx-4_1-25:1.3
	binutils-csl-sourcerygxx-4_1-24:1.3
	binutils-csl-sourcerygxx-4_1-23:1.3
	binutils-csl-sourcerygxx-4_1-21:1.3
	binutils-csl-arm-2006q3-21:1.3
	binutils-csl-sourcerygxx-4_1-22:1.3
	binutils-csl-palmsource-arm-prelinker-1_0-1:1.3
	binutils-csl-sourcerygxx-4_1-20:1.3
	binutils-csl-arm-2006q3-19:1.3
	binutils-csl-sourcerygxx-4_1-19:1.3
	binutils-csl-sourcerygxx-4_1-18:1.3
	binutils-csl-renesas-4_1-9:1.3
	binutils-csl-sourcerygxx-3_4_4-25:1.3
	binutils-csl-renesas-4_1-8:1.3
	binutils-csl-renesas-4_1-7:1.3
	binutils-csl-renesas-4_1-6:1.3
	binutils-csl-sourcerygxx-4_1-17:1.3
	binutils-csl-sourcerygxx-4_1-14:1.3
	binutils-csl-sourcerygxx-4_1-15:1.3
	binutils-csl-sourcerygxx-4_1-13:1.3
	binutils-2_17:1.3
	binutils-csl-sourcerygxx-4_1-12:1.3
	binutils-csl-sourcerygxx-3_4_4-21:1.3
	binutils-csl-wrs-linux-3_4_4-24:1.3
	binutils-csl-wrs-linux-3_4_4-23:1.3
	binutils-csl-sourcerygxx-4_1-9:1.3
	binutils-csl-sourcerygxx-4_1-8:1.3
	binutils-csl-sourcerygxx-4_1-7:1.3
	binutils-csl-arm-2006q1-6:1.3
	binutils-csl-sourcerygxx-4_1-6:1.3
	binutils-csl-wrs-linux-3_4_4-22:1.3
	binutils-csl-coldfire-4_1-11:1.3
	binutils-csl-sourcerygxx-3_4_4-19:1.3
	binutils-csl-coldfire-4_1-10:1.3
	binutils-csl-sourcerygxx-4_1-5:1.3
	binutils-csl-sourcerygxx-4_1-4:1.3
	binutils-csl-wrs-linux-3_4_4-21:1.3
	binutils-csl-morpho-4_1-4:1.3
	binutils-csl-sourcerygxx-3_4_4-17:1.3
	binutils-csl-wrs-linux-3_4_4-20:1.3
	binutils-2_17-branch:1.3.0.18
	binutils-2_17-branchpoint:1.3
	binutils-csl-2_17-branch:1.3.0.16
	binutils-csl-2_17-branchpoint:1.3
	binutils-csl-gxxpro-3_4-branch:1.3.0.14
	binutils-csl-gxxpro-3_4-branchpoint:1.3
	binutils-2_16_1:1.3
	binutils-csl-arm-2005q1b:1.3
	binutils-2_16:1.3
	binutils-csl-arm-2005q1a:1.3
	binutils-csl-arm-2005q1-branch:1.3.0.12
	binutils-csl-arm-2005q1-branchpoint:1.3
	binutils-2_16-branch:1.3.0.10
	binutils-2_16-branchpoint:1.3
	csl-arm-2004-q3d:1.3
	csl-arm-2004-q3:1.3
	binutils-2_15:1.3
	binutils-2_15-branchpoint:1.3
	csl-arm-2004-q1a:1.3
	csl-arm-2004-q1:1.3
	binutils-2_15-branch:1.3.0.8
	cagney_bfdfile-20040213-branch:1.3.0.6
	cagney_bfdfile-20040213-branchpoint:1.3
	cagney_bigcore-20040122-branch:1.3.0.4
	cagney_bigcore-20040122-branchpoint:1.3
	csl-arm-2003-q4:1.3
	binutils-2_14:1.3
	binutils-2_14-branch:1.3.0.2
	binutils-2_14-branchpoint:1.3
	binutils-2_13_2_1:1.2
	binutils-2_13_2:1.2
	binutils-2_13_1:1.2
	binutils-2_13:1.2
	binutils-2_13-branchpoint:1.2
	binutils-2_13-branch:1.2.0.8
	binutils-2_12_1:1.2
	binutils-2_12:1.2
	binutils-2_12-branch:1.2.0.6
	binutils-2_12-branchpoint:1.2
	cygnus_cvs_20020108_pre:1.2
	binutils-2_11_2:1.2
	binutils-2_11_1:1.2
	binutils-2_11:1.2
	x86_64versiong3:1.2
	binutils-2_11-branch:1.2.0.4
	binutils-2_10_1:1.2
	binutils-2_10:1.2
	binutils-2_10-branch:1.2.0.2
	binutils-2_10-branchpoint:1.2
	binutils_latest_snapshot:1.4
	repo-unification-2000-02-06:1.2
	binu_ss_19990721:1.2
	binu_ss_19990602:1.2
	binu_ss_19990502:1.1.1.1
	cygnus:1.1.1;
locks; strict;
comment	@# @;


1.4
date	2007.01.11.11.57.05;	author nickc;	state Exp;
branches;
next	1.3;

1.3
date	2002.08.27.23.51.47;	author amodra;	state Exp;
branches;
next	1.2;

1.2
date	99.05.17.09.26.37;	author nickc;	state Exp;
branches;
next	1.1;

1.1
date	99.05.03.07.28.51;	author rth;	state Exp;
branches
	1.1.1.1;
next	;

1.1.1.1
date	99.05.03.07.28.51;	author rth;	state Exp;
branches;
next	;


desc
@@


1.4
log
@* gas/mcore/allinsn.s: Remove use of '#' before numbers - it is a line comment character.
* gas/mcore/allinsn.d: Adjust expected disassembly to match real output.
@
text
@#as:
#objdump: -drz
#name: allinsn

.*: +file format .*

Disassembly of section \.text:

0+000 <abs>:
   0:	01e0      	abs	r0

0+002 <addc>:
   2:	0621      	addc	r1, r2

0+004 <addi>:
   4:	2003      	addi	r3, 1

0+006 <addu>:
   6:	1c54      	addu	r4, r5

0+008 <and>:
   8:	1676      	and	r6, r7

0+00a <andi>:
   a:	2e28      	andi	r8, 2

0+00c <andn>:
   c:	1fa9      	andn	r9, r10

0+00e <asr>:
   e:	1acb      	asr	r11, r12

0+010 <asrc>:
  10:	3a0d      	asrc	r13

0+012 <asri>:
  12:	3bfe      	asri	r14, 31

0+014 <bclri>:
  14:	300f      	bclri	r15, 0

0+016 <bf>:
  16:	eff4      	bf	0x.*0

0+018 <bgeni>:
  18:	3270      	bgeni	r0, 7

0+01a <BGENI>:
  1a:	3280      	bgeni	r0, 8

0+01c <BGENi>:
  1c:	33f0      	bgeni	r0, 31

0+01e <bgenr>:
  1e:	1321      	bgenr	r1, r2

0+020 <bkpt>:
  20:	0000      	bkpt

0+022 <bmaski>:
  22:	2c83      	bmaski	r3, 8

0+024 <BMASKI>:
  24:	2df3      	bmaski	r3, 31

0+026 <br>:
  26:	f7ff      	br	0x.*26

0+028 <brev>:
  28:	00f4      	brev	r4

0+02a <bseti>:
  2a:	35e5      	bseti	r5, 30

0+02c <bsr>:
  2c:	ffe9      	bsr	0x.*0.*

0+02e <bt>:
  2e:	e7e8      	bt	0x.*0

0+030 <btsti>:
  30:	37b6      	btsti	r6, 27

0+032 <clrc>:
  32:	0f00      	cmpne	r0, r0

0+034 <clrf>:
  34:	01d7      	clrf	r7

0+036 <clrt>:
  36:	01c8      	clrt	r8

0+038 <cmphs>:
  38:	0ca9      	cmphs	r9, r10

0+03a <cmplt>:
  3a:	0dcb      	cmplt	r11, r12

0+03c <cmplei>:
  3c:	22eb      	cmplti	r11, 15

0+03e <cmplti>:
  3e:	23fd      	cmplti	r13, 32

0+040 <cmpne>:
  40:	0ffe      	cmpne	r14, r15

0+042 <cmpnei>:
  42:	2a00      	cmpnei	r0, 0

0+044 <decf>:
  44:	0091      	decf	r1

0+046 <decgt>:
  46:	01a2      	decgt	r2

0+048 <declt>:
  48:	0183      	declt	r3

0+04a <decne>:
  4a:	01b4      	decne	r4

0+04c <dect>:
  4c:	0085      	dect	r5

0+04e <divs>:
  4e:	3216      	divs	r6, r1

0+050 <divu>:
  50:	2c18      	divu	r8, r1

0+052 <doze>:
  52:	0006      	doze

0+054 <ff1>:
  54:	00ea      	ff1	r10

0+056 <incf>:
  56:	00bb      	incf	r11

0+058 <inct>:
  58:	00ac      	inct	r12

0+05a <ixh>:
  5a:	1ded      	ixh	r13, r14

0+05c <ixw>:
  5c:	150f      	ixw	r15, r0

0+05e <jbf>:
  5e:	efd0      	bf	0x.*0

0+060 <jbr>:
  60:	f00e      	br	0x7e

0+062 <jbsr>:
  62:	7f0a      	jsri	0x0	// from address pool at 0x8c

0+064 <jbt>:
  64:	e00c      	bt	0x7e

0+066 <jmp>:
  66:	00c1      	jmp	r1

0+068 <jmpi>:
  68:	7009      	jmpi	0x0	// from address pool at 0x8c

0+06a <jsr>:
  6a:	00d2      	jsr	r2

0+06c <jsri>:
  6c:	7f08      	jsri	0x0	// from address pool at 0x8c

0+06e <ld\.b>:
  6e:	a304      	ldb	r3, \(r4, 0\)

0+070 <ld\.h>:
  70:	c516      	ldh	r5, \(r6, 2\)

0+072 <ld\.w>:
  72:	8718      	ld	r7, \(r8, 4\)

0+074 <ldb>:
  74:	a9fa      	ldb	r9, \(r10, 15\)

0+076 <ldh>:
  76:	cbfc      	ldh	r11, \(r12, 30\)

0+078 <ld>:
  78:	8d5e      	ld	r13, \(r14, 20\)

0+07a <ldw>:
  7a:	8dfe      	ld	r13, \(r14, 60\)

0+07c <ldm>:
  7c:	0062      	ldm	r2-r15, \(r0\)

0+07e <fooloop>:
  7e:	0041      	ldq	r4-r7, \(r1\)

0+080 <loopt>:
  80:	048e      	loopt	r8, 0x64

0+082 <LRW>:
  82:	7901      	lrw	r9, 0x3C0C1BBA

0+084 <lrw>:
  84:	7903      	lrw	r9, 0x4321

0+086 <foolit>:
  86:	1234      	mov	r4, r3

0+088 <lsl>:
  88:	1bba      	lsl	r10, r11

0+08a <lslc>:
  8a:	3c0c      	lslc	r12
  8c:	0000      	bkpt
			8c: ADDR32	\.text
  8e:	0000      	bkpt
  90:	4321      	\.short 0x4321
  92:	0000      	bkpt

0+094 <lsli>:
  94:	3dfd      	lsli	r13, 31

0+096 <lsr>:
  96:	0bfe      	lsr	r14, r15

0+098 <lsrc>:
  98:	3e00      	lsrc	r0

0+09a <lsri>:
  9a:	3e11      	lsri	r1, 1

0+09c <mclri>:
  9c:	3064      	bclri	r4, 6

0+09e <mfcr>:
  9e:	1002      	mfcr	r2, psr

0+0a0 <mov>:
  a0:	1243      	mov	r3, r4

0+0a2 <movf>:
  a2:	0a65      	movf	r5, r6

0+0a4 <movi>:
  a4:	67f7      	movi	r7, 127

0+0a6 <movt>:
  a6:	0298      	movt	r8, r9

0+0a8 <mtcr>:
  a8:	180a      	mtcr	r10, psr

0+0aa <mult>:
  aa:	03cb      	mult	r11, r12

0+0ac <mvc>:
  ac:	002d      	mvc	r13

0+0ae <mvcv>:
  ae:	003e      	mvcv	r14

0+0b0 <neg>:
  b0:	2802      	rsubi	r2, 0

0+0b2 <not>:
  b2:	01ff      	not	r15

0+0b4 <or>:
  b4:	1e10      	or	r0, r1

0+0b6 <rfi>:
  b6:	0003      	rfi

0+0b8 <rolc>:
  b8:	0666      	addc	r6, r6

0+0ba <rori>:
  ba:	39a9      	rotli	r9, 26

0+0bc <rotlc>:
  bc:	0666      	addc	r6, r6

0+0be <rotli>:
  be:	38a2      	rotli	r2, 10

0+0c0 <rotri>:
  c0:	39a9      	rotli	r9, 26

0+0c2 <rsub>:
  c2:	1443      	rsub	r3, r4

0+0c4 <rsubi>:
  c4:	2805      	rsubi	r5, 0

0+0c6 <rte>:
  c6:	0002      	rte

0+0c8 <rts>:
  c8:	00cf      	jmp	r15

0+0ca <setc>:
  ca:	0c00      	cmphs	r0, r0

0+0cc <sextb>:
  cc:	0156      	sextb	r6

0+0ce <sexth>:
  ce:	0177      	sexth	r7

0+0d0 <st\.b>:
  d0:	b809      	stb	r8, \(r9, 0\)

0+0d2 <st\.h>:
  d2:	da1b      	sth	r10, \(r11, 2\)

0+0d4 <st\.w>:
  d4:	9c1d      	st	r12, \(r13, 4\)

0+0d6 <stb>:
  d6:	beff      	stb	r14, \(r15, 15\)

0+0d8 <sth>:
  d8:	d0f1      	sth	r0, \(r1, 30\)

0+0da <stw>:
  da:	92f3      	st	r2, \(r3, 60\)

0+0dc <st>:
  dc:	9405      	st	r4, \(r5, 0\)

0+0de <stm>:
  de:	007e      	stm	r14-r15, \(r0\)

0+0e0 <stop>:
  e0:	0004      	stop

0+0e2 <stq>:
  e2:	0051      	stq	r4-r7, \(r1\)

0+0e4 <subc>:
  e4:	07d7      	subc	r7, r13

0+0e6 <subi>:
  e6:	25fe      	subi	r14, 32

0+0e8 <subu>:
  e8:	0539      	subu	r9, r3

0+0ea <sync>:
  ea:	0001      	sync

0+0ec <tstlt>:
  ec:	37f5      	btsti	r5, 31

0+0ee <tstne>:
  ee:	2a07      	cmpnei	r7, 0

0+0f0 <trap>:
  f0:	000a      	trap	2

0+0f2 <tst>:
  f2:	0eee      	tst	r14, r14

0+0f4 <tstnbz>:
  f4:	0192      	tstnbz	r2

0+0f6 <wait>:
  f6:	0005      	wait

0+0f8 <xor>:
  f8:	170f      	xor	r15, r0

0+0fa <xsr>:
  fa:	380b      	xsr	r11

0+0fc <xtrb0>:
  fc:	0131      	xtrb0	r1, r1

0+0fe <xtrb1>:
  fe:	0122      	xtrb1	r1, r2

0+0100 <xtrb2>:
 100:	0110      	xtrb2	r1, r0

0+0102 <xtrb3>:
 102:	010d      	xtrb3	r1, r13

0+0104 <zextb>:
 104:	0148      	zextb	r8

0+0106 <zexth>:
 106:	0164      	zexth	r4
 108:	0f00      	cmpne	r0, r0
 10a:	0f00      	cmpne	r0, r0
@


1.3
log
@	* gas/mcore/allinsn.d: Escape dots.  Pass -z to objdump and adjust
	to suit.  Match coff relocs.  Match "from address pool" comments.
	* gas/sparc/pcrel.s: Use 2b label in expressions.
	* gas/sparc/pcrel64.s: Likewise.
	* gas/sparc/pcrel.d: Adjust to suit.
	* gas/sparc/pcrel64.d: Likewise.
	* gas/vtable/vtable.exp: Move xfails to ..
	(proc vtable_setup_xfails): .. here. Add i866.
@
text
@d43 1
a43 1
  16:	eff4      	bf	0x0
d67 1
a67 1
  26:	f7ff      	br	0x26
d76 1
a76 1
  2c:	ffe9      	bsr	0x0
d79 1
a79 1
  2e:	e7e8      	bt	0x0
d151 1
a151 1
  5e:	efd0      	bf	0x0
d205 1
a205 1
  82:	7903      	lrw	r9, (0x86|0x0	// from address pool at 0x90)
d208 1
a208 1
  84:	7904      	lrw	r9, 0x4321
d221 1
a221 2
  90:	(0000      	bkpt|0086      	dect	r6)
			90: ADDR32	\.text(\+0x86)?
a222 2
  94:	4321      	\.short 0x4321
  96:	0000      	bkpt
d224 2
a225 2
0+098 <lsli>:
  98:	3dfd      	lsli	r13, 31
d227 2
a228 2
0+09a <lsr>:
  9a:	0bfe      	lsr	r14, r15
d230 2
a231 2
0+09c <lsrc>:
  9c:	3e00      	lsrc	r0
d233 2
a234 2
0+09e <lsri>:
  9e:	3e11      	lsri	r1, 1
d236 2
a237 2
0+0a0 <mclri>:
  a0:	3064      	bclri	r4, 6
d239 2
a240 2
0+0a2 <mfcr>:
  a2:	1002      	mfcr	r2, psr
d242 2
a243 2
0+0a4 <mov>:
  a4:	1243      	mov	r3, r4
d245 2
a246 2
0+0a6 <movf>:
  a6:	0a65      	movf	r5, r6
d248 2
a249 2
0+0a8 <movi>:
  a8:	67f7      	movi	r7, 127
d251 2
a252 2
0+0aa <movt>:
  aa:	0298      	movt	r8, r9
d254 2
a255 2
0+0ac <mtcr>:
  ac:	180a      	mtcr	r10, psr
d257 2
a258 2
0+0ae <mult>:
  ae:	03cb      	mult	r11, r12
d260 2
a261 2
0+0b0 <mvc>:
  b0:	002d      	mvc	r13
d263 2
a264 2
0+0b2 <mvcv>:
  b2:	003e      	mvcv	r14
d266 2
a267 2
0+0b4 <neg>:
  b4:	2802      	rsubi	r2, 0
d269 2
a270 2
0+0b6 <not>:
  b6:	01ff      	not	r15
d272 2
a273 2
0+0b8 <or>:
  b8:	1e10      	or	r0, r1
d275 2
a276 2
0+0ba <rfi>:
  ba:	0003      	rfi
d278 2
a279 2
0+0bc <rolc>:
  bc:	0666      	addc	r6, r6
d281 2
a282 2
0+0be <rori>:
  be:	39a9      	rotli	r9, 26
d284 2
a285 2
0+0c0 <rotlc>:
  c0:	0666      	addc	r6, r6
d287 2
a288 2
0+0c2 <rotli>:
  c2:	38a2      	rotli	r2, 10
d290 2
a291 2
0+0c4 <rotri>:
  c4:	39a9      	rotli	r9, 26
d293 2
a294 2
0+0c6 <rsub>:
  c6:	1443      	rsub	r3, r4
d296 2
a297 2
0+0c8 <rsubi>:
  c8:	2805      	rsubi	r5, 0
d299 2
a300 2
0+0ca <rte>:
  ca:	0002      	rte
d302 2
a303 2
0+0cc <rts>:
  cc:	00cf      	jmp	r15
d305 2
a306 2
0+0ce <setc>:
  ce:	0c00      	cmphs	r0, r0
d308 2
a309 2
0+0d0 <sextb>:
  d0:	0156      	sextb	r6
d311 2
a312 2
0+0d2 <sexth>:
  d2:	0177      	sexth	r7
d314 2
a315 2
0+0d4 <st\.b>:
  d4:	b809      	stb	r8, \(r9, 0\)
d317 2
a318 2
0+0d6 <st\.h>:
  d6:	da1b      	sth	r10, \(r11, 2\)
d320 2
a321 2
0+0d8 <st\.w>:
  d8:	9c1d      	st	r12, \(r13, 4\)
d323 2
a324 2
0+0da <stb>:
  da:	beff      	stb	r14, \(r15, 15\)
d326 2
a327 2
0+0dc <sth>:
  dc:	d0f1      	sth	r0, \(r1, 30\)
d329 2
a330 2
0+0de <stw>:
  de:	92f3      	st	r2, \(r3, 60\)
d332 2
a333 2
0+0e0 <st>:
  e0:	9405      	st	r4, \(r5, 0\)
d335 2
a336 2
0+0e2 <stm>:
  e2:	007e      	stm	r14-r15, \(r0\)
d338 2
a339 2
0+0e4 <stop>:
  e4:	0004      	stop
d341 2
a342 2
0+0e6 <stq>:
  e6:	0051      	stq	r4-r7, \(r1\)
d344 2
a345 2
0+0e8 <subc>:
  e8:	07d7      	subc	r7, r13
d347 2
a348 2
0+0ea <subi>:
  ea:	25fe      	subi	r14, 32
d350 2
a351 2
0+0ec <subu>:
  ec:	0539      	subu	r9, r3
d353 2
a354 2
0+0ee <sync>:
  ee:	0001      	sync
d356 2
a357 2
0+0f0 <tstlt>:
  f0:	37f5      	btsti	r5, 31
d359 2
a360 2
0+0f2 <tstne>:
  f2:	2a07      	cmpnei	r7, 0
d362 2
a363 2
0+0f4 <trap>:
  f4:	000a      	trap	2
d365 2
a366 2
0+0f6 <tst>:
  f6:	0eee      	tst	r14, r14
d368 2
a369 2
0+0f8 <tstnbz>:
  f8:	0192      	tstnbz	r2
d371 2
a372 2
0+0fa <wait>:
  fa:	0005      	wait
d374 2
a375 2
0+0fc <xor>:
  fc:	170f      	xor	r15, r0
d377 2
a378 2
0+0fe <xsr>:
  fe:	380b      	xsr	r11
d380 2
a381 2
0+0100 <xtrb0>:
 100:	0131      	xtrb0	r1, r1
d383 2
a384 2
0+0102 <xtrb1>:
 102:	0122      	xtrb1	r1, r2
d386 2
a387 2
0+0104 <xtrb2>:
 104:	0110      	xtrb2	r1, r0
d389 2
a390 2
0+0106 <xtrb3>:
 106:	010d      	xtrb3	r1, r13
d392 2
a393 2
0+0108 <zextb>:
 108:	0148      	zextb	r8
d395 4
a398 4
0+010a <zexth>:
 10a:	0164      	zexth	r4
 10c:	0f00      	cmpne	r0, r0
 10e:	0f00      	cmpne	r0, r0
@


1.2
log
@Update to match lattest assembler/objdump outpuyt
@
text
@d2 1
a2 1
#objdump: -dr
d7 1
a7 1
Disassembly of section .text:
d58 1
a58 1
	...
d157 1
a157 1
  62:	7f0a      	jsri	0x.*
d166 1
a166 1
  68:	7009      	jmpi	0x.*
d172 1
a172 1
  6c:	7f08      	jsri	0x.*
d174 1
a174 1
0+06e <ld.b>:
d177 1
a177 1
0+070 <ld.h>:
d180 1
a180 1
0+072 <ld.w>:
d205 1
a205 1
  82:	7903      	lrw	r9, 0x.*
d218 8
a225 6

	...
			8c: ADDR32	.text
			90: ADDR32	.text.*
  94:	0000      	bkpt
  96:	4321      	.short 0x4321
d317 1
a317 1
0+0d4 <st.b>:
d320 1
a320 1
0+0d6 <st.h>:
d323 1
a323 1
0+0d8 <st.w>:
@


1.1
log
@Initial revision
@
text
@d10 1
a10 1
   0:	01 e0       	abs	r0
d13 1
a13 1
   2:	06 21       	addc	r1, r2
d16 1
a16 1
   4:	20 03       	addi	r3, 1
d19 1
a19 1
   6:	1c 54       	addu	r4, r5
d22 1
a22 1
   8:	16 76       	and	r6, r7
d25 1
a25 1
   a:	2e 28       	andi	r8, 2
d28 1
a28 1
   c:	1f a9       	andn	r9, r10
d31 1
a31 1
   e:	1a cb       	asr	r11, r12
d34 1
a34 1
  10:	3a 0d       	asrc	r13
d37 1
a37 1
  12:	3b fe       	asri	r14, 31
d40 1
a40 1
  14:	30 0f       	bclri	r15, 0
d43 1
a43 1
  16:	ef f4       	bf	0x0
d46 1
a46 1
  18:	32 70       	bgeni	r0, 7
d49 1
a49 1
  1a:	32 80       	bgeni	r0, 8
d52 1
a52 1
  1c:	33 f0       	bgeni	r0, 31
d55 1
a55 1
  1e:	13 21       	bgenr	r1, r2
d61 1
a61 1
  22:	2c 83       	bmaski	r3, 8
d64 1
a64 1
  24:	2d f3       	bmaski	r3, 31
d67 1
a67 1
  26:	f7 ff       	br	0x26
d70 1
a70 1
  28:	00 f4       	brev	r4
d73 1
a73 1
  2a:	35 e5       	bseti	r5, 30
d76 1
a76 1
  2c:	ff e9       	bsr	0x0
d79 1
a79 1
  2e:	e7 e8       	bt	0x0
d82 1
a82 1
  30:	37 b6       	btsti	r6, 27
d85 1
a85 1
  32:	0f 00       	cmpne	r0, r0
d88 1
a88 1
  34:	01 d7       	clrf	r7
d91 1
a91 1
  36:	01 c8       	clrt	r8
d94 1
a94 1
  38:	0c a9       	cmphs	r9, r10
d97 1
a97 1
  3a:	0d cb       	cmplt	r11, r12
d100 1
a100 1
  3c:	22 eb       	cmplti	r11, 15
d103 1
a103 1
  3e:	23 fd       	cmplti	r13, 32
d106 1
a106 1
  40:	0f fe       	cmpne	r14, r15
d109 1
a109 1
  42:	2a 00       	cmpnei	r0, 0
d112 1
a112 1
  44:	00 91       	decf	r1
d115 1
a115 1
  46:	01 a2       	decgt	r2
d118 1
a118 1
  48:	01 83       	declt	r3
d121 1
a121 1
  4a:	01 b4       	decne	r4
d124 1
a124 1
  4c:	00 85       	dect	r5
d127 1
a127 1
  4e:	32 16       	divs	r6, r1
d130 1
a130 1
  50:	2c 18       	divu	r8, r1
d133 1
a133 1
  52:	00 06       	doze
d136 1
a136 1
  54:	00 ea       	ff1	r10
d139 1
a139 1
  56:	00 bb       	incf	r11
d142 1
a142 1
  58:	00 ac       	inct	r12
d145 1
a145 1
  5a:	1d ed       	ixh	r13, r14
d148 1
a148 1
  5c:	15 0f       	ixw	r15, r0
d151 1
a151 1
  5e:	ef d0       	bf	0x0
d154 1
a154 1
  60:	f0 0e       	br	0x7e
d157 1
a157 1
  62:	7f 0a       	jsri	0x.*
d160 1
a160 1
  64:	e0 0c       	bt	0x7e
d163 1
a163 1
  66:	00 c1       	jmp	r1
d166 1
a166 1
  68:	70 09       	jmpi	0x.*
d169 1
a169 1
  6a:	00 d2       	jsr	r2
d172 1
a172 1
  6c:	7f 08       	jsri	0x.*
d175 1
a175 1
  6e:	a3 04       	ldb	r3, \(r4, 0\)
d178 1
a178 1
  70:	c5 16       	ldh	r5, \(r6, 2\)
d181 1
a181 1
  72:	87 18       	ld	r7, \(r8, 4\)
d184 1
a184 1
  74:	a9 fa       	ldb	r9, \(r10, 15\)
d187 1
a187 1
  76:	cb fc       	ldh	r11, \(r12, 30\)
d190 1
a190 1
  78:	8d 5e       	ld	r13, \(r14, 20\)
d193 1
a193 1
  7a:	8d fe       	ld	r13, \(r14, 60\)
d196 1
a196 1
  7c:	00 62       	ldm	r2-r15, \(r0\)
d199 1
a199 1
  7e:	00 41       	ldq	r4-r7, \(r1\)
d202 1
a202 1
  80:	04 8e       	loopt	r8, 0x64
d205 1
a205 1
  82:	79 03       	lrw	r9, 0x.*
d208 1
a208 1
  84:	79 04       	lrw	r9, 0x4321
d211 1
a211 1
  86:	12 34       	mov	r4, r3
d214 1
a214 1
  88:	1b ba       	lsl	r10, r11
d217 1
a217 1
  8a:	3c 0c       	lslc	r12
a218 1
0+08c <.XP0001>:
d222 2
a223 2
  94:	00 00       	bkpt
  96:	43 21       	.word 0x4321
d226 1
a226 1
  98:	3d fd       	lsli	r13, 31
d229 1
a229 1
  9a:	0b fe       	lsr	r14, r15
d232 1
a232 1
  9c:	3e 00       	lsrc	r0
d235 1
a235 1
  9e:	3e 11       	lsri	r1, 1
d238 1
a238 1
  a0:	30 64       	bclri	r4, 6
d241 1
a241 1
  a2:	10 02       	mfcr	r2, psr
d244 1
a244 1
  a4:	12 43       	mov	r3, r4
d247 1
a247 1
  a6:	0a 65       	movf	r5, r6
d250 1
a250 1
  a8:	67 f7       	movi	r7, 127
d253 1
a253 1
  aa:	02 98       	movt	r8, r9
d256 1
a256 1
  ac:	18 0a       	mtcr	r10, psr
d259 1
a259 1
  ae:	03 cb       	mult	r11, r12
d262 1
a262 1
  b0:	00 2d       	mvc	r13
d265 1
a265 1
  b2:	00 3e       	mvcv	r14
d268 1
a268 1
  b4:	28 02       	rsubi	r2, 0
d271 1
a271 1
  b6:	01 ff       	not	r15
d274 1
a274 1
  b8:	1e 10       	or	r0, r1
d277 1
a277 1
  ba:	00 03       	rfi
d280 1
a280 1
  bc:	06 66       	addc	r6, r6
d283 1
a283 1
  be:	39 a9       	rotli	r9, 26
d286 1
a286 1
  c0:	06 66       	addc	r6, r6
d289 1
a289 1
  c2:	38 a2       	rotli	r2, 10
d292 1
a292 1
  c4:	39 a9       	rotli	r9, 26
d295 1
a295 1
  c6:	14 43       	rsub	r3, r4
d298 1
a298 1
  c8:	28 05       	rsubi	r5, 0
d301 1
a301 1
  ca:	00 02       	rte
d304 1
a304 1
  cc:	00 cf       	jmp	r15
d307 1
a307 1
  ce:	0c 00       	cmphs	r0, r0
d310 1
a310 1
  d0:	01 56       	sextb	r6
d313 1
a313 1
  d2:	01 77       	sexth	r7
d316 1
a316 1
  d4:	b8 09       	stb	r8, \(r9, 0\)
d319 1
a319 1
  d6:	da 1b       	sth	r10, \(r11, 2\)
d322 1
a322 1
  d8:	9c 1d       	st	r12, \(r13, 4\)
d325 1
a325 1
  da:	be ff       	stb	r14, \(r15, 15\)
d328 1
a328 1
  dc:	d0 f1       	sth	r0, \(r1, 30\)
d331 1
a331 1
  de:	92 f3       	st	r2, \(r3, 60\)
d334 1
a334 1
  e0:	94 05       	st	r4, \(r5, 0\)
d337 1
a337 1
  e2:	00 7e       	stm	r14-r15, \(r0\)
d340 1
a340 1
  e4:	00 04       	stop
d343 1
a343 1
  e6:	00 51       	stq	r4-r7, \(r1\)
d346 1
a346 1
  e8:	07 d7       	subc	r7, r13
d349 1
a349 1
  ea:	25 fe       	subi	r14, 32
d352 1
a352 1
  ec:	05 39       	subu	r9, r3
d355 1
a355 1
  ee:	00 01       	sync
d358 1
a358 1
  f0:	37 f5       	btsti	r5, 31
d361 1
a361 1
  f2:	2a 07       	cmpnei	r7, 0
d364 1
a364 1
  f4:	00 0a       	trap	2
d367 1
a367 1
  f6:	0e ee       	tst	r14, r14
d370 1
a370 1
  f8:	01 92       	tstnbz	r2
d373 1
a373 1
  fa:	00 05       	wait
d376 1
a376 1
  fc:	17 0f       	xor	r15, r0
d379 1
a379 1
  fe:	38 0b       	xsr	r11
d382 1
a382 1
 100:	01 31       	xtrb0	r1, r1
d385 1
a385 1
 102:	01 22       	xtrb1	r1, r2
d388 1
a388 1
 104:	01 10       	xtrb2	r1, r0
d391 1
a391 1
 106:	01 0d       	xtrb3	r1, r13
d394 1
a394 1
 108:	01 48       	zextb	r8
d397 3
a399 3
 10a:	01 64       	zexth	r4
 10c:	0f 00       	cmpne	r0, r0
 10e:	0f 00       	cmpne	r0, r0
@


1.1.1.1
log
@19990502 sourceware import
@
text
@@

